
Allocating common symbols
Common symbol       size              file

_kernel_MemMap      0x4               ./Source/core/NSOBiosMaps.o
AcpiGbl_StateCache  0x4               ./Source/acpica/utilities/utglobal.o
AcpiGbl_OwnerIdMask
                    0x20              ./Source/acpica/utilities/utglobal.o
AcpiGbl_StepToNextCall
                    0x1               ./Source/acpica/utilities/utglobal.o
AcpiGbl_RootTableList
                    0x10              ./Source/acpica/utilities/utglobal.o
AcpiGbl_FadtGpeDevice
                    0x4               ./Source/acpica/utilities/utglobal.o
AcpiGbl_GpeXruptListHead
                    0x4               ./Source/acpica/utilities/utglobal.o
AcpiGbl_GlobalLockHandle
                    0x2               ./Source/acpica/utilities/utglobal.o
_kernel_TerminateList
                    0x24              ./Source/core/NSOSched.o
AcpiGbl_RootNodeStruct
                    0x18              ./Source/acpica/utilities/utglobal.o
_kernel_local_pointer
                    0x6               ./Source/core/NSOInterrupts.o
AcpiGbl_DbDebugLevel
                    0x4               ./Source/acpica/utilities/utglobal.o
AcpiGbl_FACS        0x4               ./Source/acpica/utilities/utglobal.o
AcpiGbl_AllGpesInitialized
                    0x1               ./Source/acpica/utilities/utglobal.o
AcpiGbl_ObjTypeCount
                    0x38              ./Source/acpica/utilities/utglobal.o
_kernel_MemMapSize  0x4               ./Source/core/NSOBiosMaps.o
AcpiGbl_DbConsoleDebugLevel
                    0x4               ./Source/acpica/utilities/utglobal.o
AcpiGbl_GlobalLockMutex
                    0x4               ./Source/acpica/utilities/utglobal.o
_kernel_ReadyList   0x24              ./Source/core/NSOSched.o
AcpiGbl_IntegerByteWidth
                    0x1               ./Source/acpica/utilities/utglobal.o
AcpiGbl_Pm1EnableRegisterSave
                    0x2               ./Source/acpica/utilities/utglobal.o
kernel_pageDirectory
                    0x4               ./Source/core/NSOPaging.o
AcpiGbl_DbArgTypes  0x2c              ./Source/acpica/utilities/utglobal.o
AcpiGbl_NumNodes    0x4               ./Source/acpica/utilities/utglobal.o
AcpiGbl_NsLookupCount
                    0x4               ./Source/acpica/utilities/utglobal.o
AcpiCurrentGpeCount
                    0x4               ./Source/acpica/utilities/utglobal.o
AcpiGbl_IntegerBitWidth
                    0x1               ./Source/acpica/utilities/utglobal.o
AcpiGbl_DbThreadsTerminated
                    0x1               ./Source/acpica/utilities/utglobal.o
AcpiGbl_NamespaceCache
                    0x4               ./Source/acpica/utilities/utglobal.o
AcpiGbl_TableHandler
                    0x4               ./Source/acpica/utilities/utglobal.o
AcpiGbl_HardwareLock
                    0x4               ./Source/acpica/utilities/utglobal.o
AcpiGbl_DbFilename  0x4               ./Source/acpica/utilities/utglobal.o
AcpiGbl_DbOpt_NoIniMethods
                    0x1               ./Source/acpica/utilities/utglobal.o
blocks              0x28              ./Source/devices/NSOPIT.o
AcpiGbl_FixedEventHandlers
                    0x28              ./Source/acpica/utilities/utglobal.o
AcpiSciCount        0x4               ./Source/acpica/utilities/utglobal.o
AcpiGbl_DSDT        0x4               ./Source/acpica/utilities/utglobal.o
AcpiGbl_GlobalNotify
                    0x10              ./Source/acpica/utilities/utglobal.o
AcpiGbl_GlobalLockSemaphore
                    0x4               ./Source/acpica/utilities/utglobal.o
AcpiGbl_SystemAwakeAndRunning
                    0x1               ./Source/acpica/utilities/utglobal.o
AcpiGbl_InterfaceHandler
                    0x4               ./Source/acpica/utilities/utglobal.o
end                 0x4               ./Source/core/NSOAllocator.o
head                0xc               ./Source/core/NSOAllocator.o
AcpiGbl_EventsInitialized
                    0x1               ./Source/acpica/utilities/utglobal.o
_kernel_baseIO      0x14              ./Source/core/NSOIOAPIC.o
AcpiGbl_SupportedInterfaces
                    0x4               ./Source/acpica/utilities/utglobal.o
AcpiGbl_GpeLock     0x4               ./Source/acpica/utilities/utglobal.o
AcpiGbl_SleepTypeB  0x1               ./Source/acpica/utilities/utglobal.o
AcpiGbl_InitHandler
                    0x4               ./Source/acpica/utilities/utglobal.o
AcpiGbl_GlobalLockAcquired
                    0x1               ./Source/acpica/utilities/utglobal.o
AcpiGbl_DbLineBuf   0x200             ./Source/acpica/utilities/utglobal.o
AcpiGbl_XPm1bEnable
                    0xc               ./Source/acpica/utilities/utglobal.o
AcpiGbl_OriginalDsdtHeader
                    0x24              ./Source/acpica/utilities/utglobal.o
AcpiGbl_ReferenceCountLock
                    0x4               ./Source/acpica/utilities/utglobal.o
_kernel_RunningList
                    0x24              ./Source/core/NSOSched.o
AcpiGpeCount        0x4               ./Source/acpica/utilities/utglobal.o
AcpiGbl_TableHandlerContext
                    0x4               ./Source/acpica/utilities/utglobal.o
AcpiGbl_XPm1aStatus
                    0xc               ./Source/acpica/utilities/utglobal.o
AcpiGbl_OriginalMode
                    0x4               ./Source/acpica/utilities/utglobal.o
AcpiGbl_CmSingleStep
                    0x1               ./Source/acpica/utilities/utglobal.o
AcpiGbl_GlobalEventHandlerContext
                    0x4               ./Source/acpica/utilities/utglobal.o
AcpiGbl_PsFindCount
                    0x4               ./Source/acpica/utilities/utglobal.o
AcpiGbl_NodeTypeCountMisc
                    0x2               ./Source/acpica/utilities/utglobal.o
AcpiGbl_DbArgs      0x2c              ./Source/acpica/utilities/utglobal.o
AcpiFixedEventCount
                    0x14              ./Source/acpica/utilities/utglobal.o
AcpiGbl_AcpiHardwarePresent
                    0x1               ./Source/acpica/utilities/utglobal.o
AcpiGbl_DbScopeNode
                    0x4               ./Source/acpica/utilities/utglobal.o
AcpiGbl_MutexInfo   0x60              ./Source/acpica/utilities/utglobal.o
AcpiGbl_RootNode    0x4               ./Source/acpica/utilities/utglobal.o
AcpiGbl_AddressRangeList
                    0x8               ./Source/acpica/utilities/utglobal.o
AcpiGbl_FADT        0x114             ./Source/acpica/utilities/utglobal.o
AcpiGbl_IntegerNybbleWidth
                    0x1               ./Source/acpica/utilities/utglobal.o
AcpiGbl_XPm1aEnable
                    0xc               ./Source/acpica/utilities/utglobal.o
AcpiGbl_OperandCache
                    0x4               ./Source/acpica/utilities/utglobal.o
AcpiGbl_ObjTypeCountMisc
                    0x2               ./Source/acpica/utilities/utglobal.o
AcpiGbl_DbBuffer    0x4               ./Source/acpica/utilities/utglobal.o
AcpiGbl_ModuleCodeList
                    0x4               ./Source/acpica/utilities/utglobal.o
AcpiGbl_SciHandlerList
                    0x4               ./Source/acpica/utilities/utglobal.o
AcpiGbl_OriginalDbgLayer
                    0x4               ./Source/acpica/utilities/utglobal.o
AcpiGbl_DbScopeBuf  0x200             ./Source/acpica/utilities/utglobal.o
AcpiGbl_PsNodeExtCache
                    0x4               ./Source/acpica/utilities/utglobal.o
AcpiGbl_GlobalLockPendingLock
                    0x4               ./Source/acpica/utilities/utglobal.o
AcpiGbl_DebuggerConfiguration
                    0x1               ./Source/acpica/utilities/utglobal.o
AcpiGbl_OriginalDbgLevel
                    0x4               ./Source/acpica/utilities/utglobal.o
AcpiGbl_GlobalLockPending
                    0x1               ./Source/acpica/utilities/utglobal.o
AcpiGbl_PsNodeCache
                    0x4               ./Source/acpica/utilities/utglobal.o
AcpiGbl_SleepTypeA  0x1               ./Source/acpica/utilities/utglobal.o
AcpiGbl_DbOutputToFile
                    0x1               ./Source/acpica/utilities/utglobal.o
AcpiGbl_DbOpt_NoRegionSupport
                    0x1               ./Source/acpica/utilities/utglobal.o
AcpiGbl_GpeFadtBlocks
                    0x8               ./Source/acpica/utilities/utglobal.o
AcpiMethodCount     0x4               ./Source/acpica/utilities/utglobal.o
AcpiGbl_ExceptionHandler
                    0x4               ./Source/acpica/utilities/utglobal.o
AcpiGbl_NamespaceRwLock
                    0xc               ./Source/acpica/utilities/utglobal.o
AcpiGbl_GlobalEventHandler
                    0x4               ./Source/acpica/utilities/utglobal.o
AcpiGbl_CurrentWalkList
                    0x4               ./Source/acpica/utilities/utglobal.o
AcpiGbl_OsiMutex    0x4               ./Source/acpica/utilities/utglobal.o
AcpiGbl_NodeTypeCount
                    0x38              ./Source/acpica/utilities/utglobal.o
_kernel_WaitingList
                    0x24              ./Source/core/NSOSched.o
AcpiGbl_DbTerminateLoop
                    0x1               ./Source/acpica/utilities/utglobal.o
AcpiGbl_GlobalLockPresent
                    0x1               ./Source/acpica/utilities/utglobal.o
AcpiGbl_NumObjects  0x4               ./Source/acpica/utilities/utglobal.o
AcpiGbl_DbParsedBuf
                    0x200             ./Source/acpica/utilities/utglobal.o
AcpiGbl_DbDebugFilename
                    0x200             ./Source/acpica/utilities/utglobal.o
AcpiGbl_NextOwnerIdOffset
                    0x1               ./Source/acpica/utilities/utglobal.o
AcpiGbl_LastOwnerIdIndex
                    0x1               ./Source/acpica/utilities/utglobal.o
AcpiGbl_XPm1bStatus
                    0xc               ./Source/acpica/utilities/utglobal.o

Discarded input sections

 .comment       0x0000000000000000       0x12 ./Source/core/NSOKernel.o
 .eh_frame      0x0000000000000000       0x34 ./Source/core/NSOKernel.o
 .comment       0x0000000000000000       0x12 ./Source/core/NSOBiosMaps.o
 .eh_frame      0x0000000000000000      0x100 ./Source/core/NSOBiosMaps.o
 .comment       0x0000000000000000       0x12 ./Source/core/NSOThread.o
 .eh_frame      0x0000000000000000       0x38 ./Source/core/NSOThread.o
 .comment       0x0000000000000000       0x12 ./Source/core/NSOAllocator.o
 .eh_frame      0x0000000000000000      0x158 ./Source/core/NSOAllocator.o
 .comment       0x0000000000000000       0x12 ./Source/core/NSOProcess.o
 .eh_frame      0x0000000000000000       0x38 ./Source/core/NSOProcess.o
 .comment       0x0000000000000000       0x12 ./Source/core/NSOInterrupts.o
 .eh_frame      0x0000000000000000       0xc8 ./Source/core/NSOInterrupts.o
 .comment       0x0000000000000000       0x12 ./Source/core/NSOIOAPIC.o
 .eh_frame      0x0000000000000000      0x118 ./Source/core/NSOIOAPIC.o
 .comment       0x0000000000000000       0x12 ./Source/core/NSOPAllocator.o
 .eh_frame      0x0000000000000000      0x138 ./Source/core/NSOPAllocator.o
 .comment       0x0000000000000000       0x12 ./Source/core/NSOPaging.o
 .eh_frame      0x0000000000000000      0x238 ./Source/core/NSOPaging.o
 .comment       0x0000000000000000       0x12 ./Source/core/NSOSched.o
 .eh_frame      0x0000000000000000       0xd8 ./Source/core/NSOSched.o
 .comment       0x0000000000000000       0x12 ./Source/core/NSOCacheControl.o
 .eh_frame      0x0000000000000000       0x58 ./Source/core/NSOCacheControl.o
 .comment       0x0000000000000000       0x12 ./Source/core/NSOInterruptController.o
 .eh_frame      0x0000000000000000      0x198 ./Source/core/NSOInterruptController.o
 .comment       0x0000000000000000       0x12 ./Source/core/NSOPCI.o
 .eh_frame      0x0000000000000000      0x290 ./Source/core/NSOPCI.o
 .comment       0x0000000000000000       0x12 ./Source/core/NSOMP.o
 .eh_frame      0x0000000000000000      0x118 ./Source/core/NSOMP.o
 .comment       0x0000000000000000       0x12 ./Source/core/NSOCExceptions.o
 .eh_frame      0x0000000000000000       0x88 ./Source/core/NSOCExceptions.o
 .comment       0x0000000000000000       0x12 ./Source/core/NSOIDE.o
 .eh_frame      0x0000000000000000       0x38 ./Source/core/NSOIDE.o
 .comment       0x0000000000000000       0x12 ./Source/devices/NSOAPIC.o
 .eh_frame      0x0000000000000000       0xd8 ./Source/devices/NSOAPIC.o
 .comment       0x0000000000000000       0x12 ./Source/devices/NSOHPET.o
 .eh_frame      0x0000000000000000      0x13c ./Source/devices/NSOHPET.o
 .comment       0x0000000000000000       0x12 ./Source/devices/NSO8259A.o
 .eh_frame      0x0000000000000000       0x78 ./Source/devices/NSO8259A.o
 .comment       0x0000000000000000       0x12 ./Source/devices/NSOPIT.o
 .eh_frame      0x0000000000000000       0x98 ./Source/devices/NSOPIT.o
 .comment       0x0000000000000000       0x12 ./Source/utils/NSOLocks2.o
 .eh_frame      0x0000000000000000       0x38 ./Source/utils/NSOLocks2.o
 .comment       0x0000000000000000       0x12 ./Source/utils/NSOStringUtils.o
 .eh_frame      0x0000000000000000       0x98 ./Source/utils/NSOStringUtils.o
 .comment       0x0000000000000000       0x12 ./Source/utils/NSOBochs.o
 .eh_frame      0x0000000000000000      0x1f8 ./Source/utils/NSOBochs.o
 .comment       0x0000000000000000       0x12 ./Source/utils/NSOCoreUtils.o
 .eh_frame      0x0000000000000000      0x308 ./Source/utils/NSOCoreUtils.o
 .comment       0x0000000000000000       0x12 ./Source/acpica/NSOACPIOSL.o
 .eh_frame      0x0000000000000000      0x600 ./Source/acpica/NSOACPIOSL.o
 .comment       0x0000000000000000       0x12 ./Source/acpica/debugger/dbcmds.o
 .eh_frame      0x0000000000000000      0x24c ./Source/acpica/debugger/dbcmds.o
 .comment       0x0000000000000000       0x12 ./Source/acpica/debugger/dbtest.o
 .eh_frame      0x0000000000000000      0x1bc ./Source/acpica/debugger/dbtest.o
 .comment       0x0000000000000000       0x12 ./Source/acpica/debugger/dbutils.o
 .eh_frame      0x0000000000000000       0xe4 ./Source/acpica/debugger/dbutils.o
 .comment       0x0000000000000000       0x12 ./Source/acpica/debugger/dbexec.o
 .eh_frame      0x0000000000000000      0x174 ./Source/acpica/debugger/dbexec.o
 .comment       0x0000000000000000       0x12 ./Source/acpica/debugger/dbmethod.o
 .eh_frame      0x0000000000000000       0xb8 ./Source/acpica/debugger/dbmethod.o
 .comment       0x0000000000000000       0x12 ./Source/acpica/debugger/dbdisply.o
 .eh_frame      0x0000000000000000      0x210 ./Source/acpica/debugger/dbdisply.o
 .comment       0x0000000000000000       0x12 ./Source/acpica/debugger/dbstats.o
 .eh_frame      0x0000000000000000       0xc8 ./Source/acpica/debugger/dbstats.o
 .comment       0x0000000000000000       0x12 ./Source/acpica/debugger/dbobject.o
 .eh_frame      0x0000000000000000       0xe8 ./Source/acpica/debugger/dbobject.o
 .comment       0x0000000000000000       0x12 ./Source/acpica/debugger/dbfileio.o
 .comment       0x0000000000000000       0x12 ./Source/acpica/debugger/dbhistry.o
 .eh_frame      0x0000000000000000       0x9c ./Source/acpica/debugger/dbhistry.o
 .comment       0x0000000000000000       0x12 ./Source/acpica/debugger/dbinput.o
 .eh_frame      0x0000000000000000      0x13c ./Source/acpica/debugger/dbinput.o
 .comment       0x0000000000000000       0x12 ./Source/acpica/debugger/dbxface.o
 .eh_frame      0x0000000000000000       0xec ./Source/acpica/debugger/dbxface.o
 .comment       0x0000000000000000       0x12 ./Source/acpica/debugger/dbconvert.o
 .eh_frame      0x0000000000000000       0xf8 ./Source/acpica/debugger/dbconvert.o
 .comment       0x0000000000000000       0x12 ./Source/acpica/debugger/dbnames.o
 .eh_frame      0x0000000000000000      0x248 ./Source/acpica/debugger/dbnames.o
 .comment       0x0000000000000000       0x12 ./Source/acpica/dispatcher/dswexec.o
 .eh_frame      0x0000000000000000       0x84 ./Source/acpica/dispatcher/dswexec.o
 .comment       0x0000000000000000       0x12 ./Source/acpica/dispatcher/dsmethod.o
 .eh_frame      0x0000000000000000      0x124 ./Source/acpica/dispatcher/dsmethod.o
 .comment       0x0000000000000000       0x12 ./Source/acpica/dispatcher/dsdebug.o
 .eh_frame      0x0000000000000000       0x58 ./Source/acpica/dispatcher/dsdebug.o
 .comment       0x0000000000000000       0x12 ./Source/acpica/dispatcher/dspkginit.o
 .eh_frame      0x0000000000000000       0x78 ./Source/acpica/dispatcher/dspkginit.o
 .comment       0x0000000000000000       0x12 ./Source/acpica/dispatcher/dswload2.o
 .eh_frame      0x0000000000000000       0x5c ./Source/acpica/dispatcher/dswload2.o
 .comment       0x0000000000000000       0x12 ./Source/acpica/dispatcher/dswload.o
 .eh_frame      0x0000000000000000       0x7c ./Source/acpica/dispatcher/dswload.o
 .comment       0x0000000000000000       0x12 ./Source/acpica/dispatcher/dswstate.o
 .eh_frame      0x0000000000000000      0x1b8 ./Source/acpica/dispatcher/dswstate.o
 .comment       0x0000000000000000       0x12 ./Source/acpica/dispatcher/dsopcode.o
 .eh_frame      0x0000000000000000      0x10c ./Source/acpica/dispatcher/dsopcode.o
 .comment       0x0000000000000000       0x12 ./Source/acpica/dispatcher/dsobject.o
 .eh_frame      0x0000000000000000       0xa8 ./Source/acpica/dispatcher/dsobject.o
 .comment       0x0000000000000000       0x12 ./Source/acpica/dispatcher/dsutils.o
 .eh_frame      0x0000000000000000      0x138 ./Source/acpica/dispatcher/dsutils.o
 .comment       0x0000000000000000       0x12 ./Source/acpica/dispatcher/dscontrol.o
 .eh_frame      0x0000000000000000       0x70 ./Source/acpica/dispatcher/dscontrol.o
 .comment       0x0000000000000000       0x12 ./Source/acpica/dispatcher/dswscope.o
 .eh_frame      0x0000000000000000       0x78 ./Source/acpica/dispatcher/dswscope.o
 .comment       0x0000000000000000       0x12 ./Source/acpica/dispatcher/dsmthdat.o
 .eh_frame      0x0000000000000000      0x120 ./Source/acpica/dispatcher/dsmthdat.o
 .comment       0x0000000000000000       0x12 ./Source/acpica/dispatcher/dsargs.o
 .eh_frame      0x0000000000000000       0xd8 ./Source/acpica/dispatcher/dsargs.o
 .comment       0x0000000000000000       0x12 ./Source/acpica/dispatcher/dsfield.o
 .eh_frame      0x0000000000000000       0xe4 ./Source/acpica/dispatcher/dsfield.o
 .comment       0x0000000000000000       0x12 ./Source/acpica/dispatcher/dsinit.o
 .eh_frame      0x0000000000000000       0x58 ./Source/acpica/dispatcher/dsinit.o
 .comment       0x0000000000000000       0x12 ./Source/acpica/events/evxfgpe.o
 .eh_frame      0x0000000000000000      0x23c ./Source/acpica/events/evxfgpe.o
 .comment       0x0000000000000000       0x12 ./Source/acpica/events/evxfevnt.o
 .eh_frame      0x0000000000000000       0xd8 ./Source/acpica/events/evxfevnt.o
 .comment       0x0000000000000000       0x12 ./Source/acpica/events/evxfregn.o
 .eh_frame      0x0000000000000000       0x58 ./Source/acpica/events/evxfregn.o
 .comment       0x0000000000000000       0x12 ./Source/acpica/events/evgpeutil.o
 .eh_frame      0x0000000000000000       0xb8 ./Source/acpica/events/evgpeutil.o
 .comment       0x0000000000000000       0x12 ./Source/acpica/events/evsci.o
 .eh_frame      0x0000000000000000       0xb8 ./Source/acpica/events/evsci.o
 .comment       0x0000000000000000       0x12 ./Source/acpica/events/evhandler.o
 .eh_frame      0x0000000000000000       0xb8 ./Source/acpica/events/evhandler.o
 .comment       0x0000000000000000       0x12 ./Source/acpica/events/evrgnini.o
 .eh_frame      0x0000000000000000      0x118 ./Source/acpica/events/evrgnini.o
 .comment       0x0000000000000000       0x12 ./Source/acpica/events/evxface.o
 .eh_frame      0x0000000000000000      0x1dc ./Source/acpica/events/evxface.o
 .comment       0x0000000000000000       0x12 ./Source/acpica/events/evmisc.o
 .eh_frame      0x0000000000000000       0x9c ./Source/acpica/events/evmisc.o
 .comment       0x0000000000000000       0x12 ./Source/acpica/events/evgpe.o
 .eh_frame      0x0000000000000000      0x1b8 ./Source/acpica/events/evgpe.o
 .comment       0x0000000000000000       0x12 ./Source/acpica/events/evevent.o
 .eh_frame      0x0000000000000000       0xb8 ./Source/acpica/events/evevent.o
 .comment       0x0000000000000000       0x12 ./Source/acpica/events/evregion.o
 .eh_frame      0x0000000000000000      0x11c ./Source/acpica/events/evregion.o
 .comment       0x0000000000000000       0x12 ./Source/acpica/events/evgpeblk.o
 .eh_frame      0x0000000000000000       0xbc ./Source/acpica/events/evgpeblk.o
 .comment       0x0000000000000000       0x12 ./Source/acpica/events/evglock.o
 .eh_frame      0x0000000000000000       0xb8 ./Source/acpica/events/evglock.o
 .comment       0x0000000000000000       0x12 ./Source/acpica/events/evgpeinit.o
 .eh_frame      0x0000000000000000       0x88 ./Source/acpica/events/evgpeinit.o
 .comment       0x0000000000000000       0x12 ./Source/acpica/executer/exmisc.o
 .eh_frame      0x0000000000000000       0xb8 ./Source/acpica/executer/exmisc.o
 .comment       0x0000000000000000       0x12 ./Source/acpica/executer/exresnte.o
 .eh_frame      0x0000000000000000       0x38 ./Source/acpica/executer/exresnte.o
 .comment       0x0000000000000000       0x12 ./Source/acpica/executer/exnames.o
 .eh_frame      0x0000000000000000       0x78 ./Source/acpica/executer/exnames.o
 .comment       0x0000000000000000       0x12 ./Source/acpica/executer/exoparg1.o
 .eh_frame      0x0000000000000000       0xd4 ./Source/acpica/executer/exoparg1.o
 .comment       0x0000000000000000       0x12 ./Source/acpica/executer/exregion.o
 .eh_frame      0x0000000000000000       0xe8 ./Source/acpica/executer/exregion.o
 .comment       0x0000000000000000       0x12 ./Source/acpica/executer/extrace.o
 .eh_frame      0x0000000000000000       0xd8 ./Source/acpica/executer/extrace.o
 .comment       0x0000000000000000       0x12 ./Source/acpica/executer/exoparg6.o
 .eh_frame      0x0000000000000000       0x68 ./Source/acpica/executer/exoparg6.o
 .comment       0x0000000000000000       0x12 ./Source/acpica/executer/exoparg3.o
 .eh_frame      0x0000000000000000       0x5c ./Source/acpica/executer/exoparg3.o
 .comment       0x0000000000000000       0x12 ./Source/acpica/executer/exserial.o
 .eh_frame      0x0000000000000000       0x98 ./Source/acpica/executer/exserial.o
 .comment       0x0000000000000000       0x12 ./Source/acpica/executer/exconcat.o
 .eh_frame      0x0000000000000000       0x7c ./Source/acpica/executer/exconcat.o
 .comment       0x0000000000000000       0x12 ./Source/acpica/executer/exfldio.o
 .eh_frame      0x0000000000000000      0x148 ./Source/acpica/executer/exfldio.o
 .comment       0x0000000000000000       0x12 ./Source/acpica/executer/exmutex.o
 .eh_frame      0x0000000000000000      0x114 ./Source/acpica/executer/exmutex.o
 .comment       0x0000000000000000       0x12 ./Source/acpica/executer/exoparg2.o
 .eh_frame      0x0000000000000000       0xc8 ./Source/acpica/executer/exoparg2.o
 .comment       0x0000000000000000       0x12 ./Source/acpica/executer/exdump.o
 .eh_frame      0x0000000000000000      0x154 ./Source/acpica/executer/exdump.o
 .comment       0x0000000000000000       0x12 ./Source/acpica/executer/exstore.o
 .eh_frame      0x0000000000000000       0x9c ./Source/acpica/executer/exstore.o
 .comment       0x0000000000000000       0x12 ./Source/acpica/executer/exconvrt.o
 .eh_frame      0x0000000000000000       0xc8 ./Source/acpica/executer/exconvrt.o
 .comment       0x0000000000000000       0x12 ./Source/acpica/executer/exstorob.o
 .eh_frame      0x0000000000000000       0x58 ./Source/acpica/executer/exstorob.o
 .comment       0x0000000000000000       0x12 ./Source/acpica/executer/excreate.o
 .eh_frame      0x0000000000000000       0xf8 ./Source/acpica/executer/excreate.o
 .comment       0x0000000000000000       0x12 ./Source/acpica/executer/exfield.o
 .eh_frame      0x0000000000000000       0x78 ./Source/acpica/executer/exfield.o
 .comment       0x0000000000000000       0x12 ./Source/acpica/executer/exprep.o
 .eh_frame      0x0000000000000000       0x7c ./Source/acpica/executer/exprep.o
 .comment       0x0000000000000000       0x12 ./Source/acpica/executer/exdebug.o
 .eh_frame      0x0000000000000000       0x44 ./Source/acpica/executer/exdebug.o
 .comment       0x0000000000000000       0x12 ./Source/acpica/executer/exstoren.o
 .eh_frame      0x0000000000000000       0x5c ./Source/acpica/executer/exstoren.o
 .comment       0x0000000000000000       0x12 ./Source/acpica/executer/exresolv.o
 .eh_frame      0x0000000000000000       0x78 ./Source/acpica/executer/exresolv.o
 .comment       0x0000000000000000       0x12 ./Source/acpica/executer/exconfig.o
 .eh_frame      0x0000000000000000       0xbc ./Source/acpica/executer/exconfig.o
 .comment       0x0000000000000000       0x12 ./Source/acpica/executer/exsystem.o
 .eh_frame      0x0000000000000000       0xf8 ./Source/acpica/executer/exsystem.o
 .comment       0x0000000000000000       0x12 ./Source/acpica/executer/exresop.o
 .eh_frame      0x0000000000000000       0x5c ./Source/acpica/executer/exresop.o
 .comment       0x0000000000000000       0x12 ./Source/acpica/executer/exutils.o
 .eh_frame      0x0000000000000000      0x178 ./Source/acpica/executer/exutils.o
 .comment       0x0000000000000000       0x12 ./Source/acpica/hardware/hwtimer.o
 .eh_frame      0x0000000000000000       0x88 ./Source/acpica/hardware/hwtimer.o
 .comment       0x0000000000000000       0x12 ./Source/acpica/hardware/hwesleep.o
 .eh_frame      0x0000000000000000       0xa8 ./Source/acpica/hardware/hwesleep.o
 .comment       0x0000000000000000       0x12 ./Source/acpica/hardware/hwpci.o
 .eh_frame      0x0000000000000000       0xc4 ./Source/acpica/hardware/hwpci.o
 .comment       0x0000000000000000       0x12 ./Source/acpica/hardware/hwgpe.o
 .eh_frame      0x0000000000000000      0x1b4 ./Source/acpica/hardware/hwgpe.o
 .comment       0x0000000000000000       0x12 ./Source/acpica/hardware/hwacpi.o
 .eh_frame      0x0000000000000000       0x58 ./Source/acpica/hardware/hwacpi.o
 .comment       0x0000000000000000       0x12 ./Source/acpica/hardware/hwregs.o
 .eh_frame      0x0000000000000000      0x1c4 ./Source/acpica/hardware/hwregs.o
 .comment       0x0000000000000000       0x12 ./Source/acpica/hardware/hwsleep.o
 .eh_frame      0x0000000000000000       0x78 ./Source/acpica/hardware/hwsleep.o
 .comment       0x0000000000000000       0x12 ./Source/acpica/hardware/hwvalid.o
 .eh_frame      0x0000000000000000       0x80 ./Source/acpica/hardware/hwvalid.o
 .comment       0x0000000000000000       0x12 ./Source/acpica/hardware/hwxfsleep.o
 .eh_frame      0x0000000000000000      0x118 ./Source/acpica/hardware/hwxfsleep.o
 .comment       0x0000000000000000       0x12 ./Source/acpica/hardware/hwxface.o
 .eh_frame      0x0000000000000000       0xe8 ./Source/acpica/hardware/hwxface.o
 .comment       0x0000000000000000       0x12 ./Source/acpica/namespace/nsxfobj.o
 .eh_frame      0x0000000000000000       0x78 ./Source/acpica/namespace/nsxfobj.o
 .comment       0x0000000000000000       0x12 ./Source/acpica/namespace/nsprepkg.o
 .eh_frame      0x0000000000000000       0xa0 ./Source/acpica/namespace/nsprepkg.o
 .comment       0x0000000000000000       0x12 ./Source/acpica/namespace/nsaccess.o
 .eh_frame      0x0000000000000000       0x5c ./Source/acpica/namespace/nsaccess.o
 .comment       0x0000000000000000       0x12 ./Source/acpica/namespace/nsnames.o
 .eh_frame      0x0000000000000000      0x118 ./Source/acpica/namespace/nsnames.o
 .comment       0x0000000000000000       0x12 ./Source/acpica/namespace/nsdump.o
 .eh_frame      0x0000000000000000      0x108 ./Source/acpica/namespace/nsdump.o
 .comment       0x0000000000000000       0x12 ./Source/acpica/namespace/nsdumpdv.o
 .comment       0x0000000000000000       0x12 ./Source/acpica/namespace/nsconvert.o
 .eh_frame      0x0000000000000000       0xf8 ./Source/acpica/namespace/nsconvert.o
 .comment       0x0000000000000000       0x12 ./Source/acpica/namespace/nsutils.o
 .eh_frame      0x0000000000000000      0x19c ./Source/acpica/namespace/nsutils.o
 .comment       0x0000000000000000       0x12 ./Source/acpica/namespace/nseval.o
 .eh_frame      0x0000000000000000       0x7c ./Source/acpica/namespace/nseval.o
 .comment       0x0000000000000000       0x12 ./Source/acpica/namespace/nspredef.o
 .eh_frame      0x0000000000000000       0xa0 ./Source/acpica/namespace/nspredef.o
 .comment       0x0000000000000000       0x12 ./Source/acpica/namespace/nsxfname.o
 .eh_frame      0x0000000000000000       0xb8 ./Source/acpica/namespace/nsxfname.o
 .comment       0x0000000000000000       0x12 ./Source/acpica/namespace/nsrepair.o
 .eh_frame      0x0000000000000000       0xb8 ./Source/acpica/namespace/nsrepair.o
 .comment       0x0000000000000000       0x12 ./Source/acpica/namespace/nswalk.o
 .eh_frame      0x0000000000000000       0x78 ./Source/acpica/namespace/nswalk.o
 .comment       0x0000000000000000       0x12 ./Source/acpica/namespace/nsxfeval.o
 .eh_frame      0x0000000000000000      0x13c ./Source/acpica/namespace/nsxfeval.o
 .comment       0x0000000000000000       0x12 ./Source/acpica/namespace/nsarguments.o
 .eh_frame      0x0000000000000000       0x7c ./Source/acpica/namespace/nsarguments.o
 .comment       0x0000000000000000       0x12 ./Source/acpica/namespace/nsinit.o
 .eh_frame      0x0000000000000000       0xdc ./Source/acpica/namespace/nsinit.o
 .comment       0x0000000000000000       0x12 ./Source/acpica/namespace/nsalloc.o
 .eh_frame      0x0000000000000000       0xf8 ./Source/acpica/namespace/nsalloc.o
 .comment       0x0000000000000000       0x12 ./Source/acpica/namespace/nsobject.o
 .eh_frame      0x0000000000000000       0xf8 ./Source/acpica/namespace/nsobject.o
 .comment       0x0000000000000000       0x12 ./Source/acpica/namespace/nssearch.o
 .eh_frame      0x0000000000000000       0x78 ./Source/acpica/namespace/nssearch.o
 .comment       0x0000000000000000       0x12 ./Source/acpica/namespace/nsload.o
 .eh_frame      0x0000000000000000       0x38 ./Source/acpica/namespace/nsload.o
 .comment       0x0000000000000000       0x12 ./Source/acpica/namespace/nsparse.o
 .eh_frame      0x0000000000000000       0x78 ./Source/acpica/namespace/nsparse.o
 .comment       0x0000000000000000       0x12 ./Source/acpica/namespace/nsrepair2.o
 .eh_frame      0x0000000000000000      0x1c4 ./Source/acpica/namespace/nsrepair2.o
 .comment       0x0000000000000000       0x12 ./Source/acpica/parser/psargs.o
 .eh_frame      0x0000000000000000      0x108 ./Source/acpica/parser/psargs.o
 .comment       0x0000000000000000       0x12 ./Source/acpica/parser/psscope.o
 .eh_frame      0x0000000000000000       0xd8 ./Source/acpica/parser/psscope.o
 .comment       0x0000000000000000       0x12 ./Source/acpica/parser/psutils.o
 .eh_frame      0x0000000000000000       0xf8 ./Source/acpica/parser/psutils.o
 .comment       0x0000000000000000       0x12 ./Source/acpica/parser/psopinfo.o
 .eh_frame      0x0000000000000000       0x78 ./Source/acpica/parser/psopinfo.o
 .comment       0x0000000000000000       0x12 ./Source/acpica/parser/pswalk.o
 .eh_frame      0x0000000000000000       0x38 ./Source/acpica/parser/pswalk.o
 .comment       0x0000000000000000       0x12 ./Source/acpica/parser/psloop.o
 .eh_frame      0x0000000000000000       0x5c ./Source/acpica/parser/psloop.o
 .comment       0x0000000000000000       0x12 ./Source/acpica/parser/pstree.o
 .eh_frame      0x0000000000000000       0x78 ./Source/acpica/parser/pstree.o
 .comment       0x0000000000000000       0x12 ./Source/acpica/parser/psopcode.o
 .comment       0x0000000000000000       0x12 ./Source/acpica/parser/psobject.o
 .eh_frame      0x0000000000000000       0xb8 ./Source/acpica/parser/psobject.o
 .comment       0x0000000000000000       0x12 ./Source/acpica/parser/psparse.o
 .eh_frame      0x0000000000000000       0xb8 ./Source/acpica/parser/psparse.o
 .comment       0x0000000000000000       0x12 ./Source/acpica/parser/psxface.o
 .eh_frame      0x0000000000000000       0xa0 ./Source/acpica/parser/psxface.o
 .comment       0x0000000000000000       0x12 ./Source/acpica/resources/rsutils.o
 .eh_frame      0x0000000000000000      0x1dc ./Source/acpica/resources/rsutils.o
 .comment       0x0000000000000000       0x12 ./Source/acpica/resources/rsio.o
 .comment       0x0000000000000000       0x12 ./Source/acpica/resources/rsirq.o
 .comment       0x0000000000000000       0x12 ./Source/acpica/resources/rsinfo.o
 .comment       0x0000000000000000       0x12 ./Source/acpica/resources/rsmisc.o
 .eh_frame      0x0000000000000000       0x5c ./Source/acpica/resources/rsmisc.o
 .comment       0x0000000000000000       0x12 ./Source/acpica/resources/rsserial.o
 .comment       0x0000000000000000       0x12 ./Source/acpica/resources/rsmemory.o
 .comment       0x0000000000000000       0x12 ./Source/acpica/resources/rslist.o
 .eh_frame      0x0000000000000000       0x58 ./Source/acpica/resources/rslist.o
 .comment       0x0000000000000000       0x12 ./Source/acpica/resources/rsaddr.o
 .eh_frame      0x0000000000000000       0x58 ./Source/acpica/resources/rsaddr.o
 .comment       0x0000000000000000       0x12 ./Source/acpica/resources/rscalc.o
 .eh_frame      0x0000000000000000       0xdc ./Source/acpica/resources/rscalc.o
 .comment       0x0000000000000000       0x12 ./Source/acpica/resources/rsxface.o
 .eh_frame      0x0000000000000000      0x178 ./Source/acpica/resources/rsxface.o
 .comment       0x0000000000000000       0x12 ./Source/acpica/resources/rscreate.o
 .eh_frame      0x0000000000000000       0x98 ./Source/acpica/resources/rscreate.o
 .comment       0x0000000000000000       0x12 ./Source/acpica/resources/rsdumpinfo.o
 .comment       0x0000000000000000       0x12 ./Source/acpica/resources/rsdump.o
 .eh_frame      0x0000000000000000      0x220 ./Source/acpica/resources/rsdump.o
 .comment       0x0000000000000000       0x12 ./Source/acpica/tables/tbinstal.o
 .eh_frame      0x0000000000000000       0xb8 ./Source/acpica/tables/tbinstal.o
 .comment       0x0000000000000000       0x12 ./Source/acpica/tables/tbxface.o
 .eh_frame      0x0000000000000000      0x138 ./Source/acpica/tables/tbxface.o
 .comment       0x0000000000000000       0x12 ./Source/acpica/tables/tbdata.o
 .eh_frame      0x0000000000000000      0x32c ./Source/acpica/tables/tbdata.o
 .comment       0x0000000000000000       0x12 ./Source/acpica/tables/tbfadt.o
 .eh_frame      0x0000000000000000      0x110 ./Source/acpica/tables/tbfadt.o
 .comment       0x0000000000000000       0x12 ./Source/acpica/tables/tbxfroot.o
 .eh_frame      0x0000000000000000       0x98 ./Source/acpica/tables/tbxfroot.o
 .comment       0x0000000000000000       0x12 ./Source/acpica/tables/tbprint.o
 .eh_frame      0x0000000000000000       0xc8 ./Source/acpica/tables/tbprint.o
 .comment       0x0000000000000000       0x12 ./Source/acpica/tables/tbutils.o
 .eh_frame      0x0000000000000000      0x118 ./Source/acpica/tables/tbutils.o
 .comment       0x0000000000000000       0x12 ./Source/acpica/tables/tbxfload.o
 .eh_frame      0x0000000000000000       0xb8 ./Source/acpica/tables/tbxfload.o
 .comment       0x0000000000000000       0x12 ./Source/acpica/tables/tbfind.o
 .eh_frame      0x0000000000000000       0x38 ./Source/acpica/tables/tbfind.o
 .comment       0x0000000000000000       0x12 ./Source/acpica/utilities/utxferror.o
 .eh_frame      0x0000000000000000       0xf8 ./Source/acpica/utilities/utxferror.o
 .comment       0x0000000000000000       0x12 ./Source/acpica/utilities/utobject.o
 .eh_frame      0x0000000000000000      0x19c ./Source/acpica/utilities/utobject.o
 .comment       0x0000000000000000       0x12 ./Source/acpica/utilities/uteval.o
 .eh_frame      0x0000000000000000       0x9c ./Source/acpica/utilities/uteval.o
 .comment       0x0000000000000000       0x12 ./Source/acpica/utilities/utaddress.o
 .eh_frame      0x0000000000000000       0xa8 ./Source/acpica/utilities/utaddress.o
 .comment       0x0000000000000000       0x12 ./Source/acpica/utilities/utinit.o
 .eh_frame      0x0000000000000000       0x98 ./Source/acpica/utilities/utinit.o
 .comment       0x0000000000000000       0x12 ./Source/acpica/utilities/utclib.o
 .eh_frame      0x0000000000000000      0x258 ./Source/acpica/utilities/utclib.o
 .comment       0x0000000000000000       0x12 ./Source/acpica/utilities/utosi.o
 .eh_frame      0x0000000000000000       0xf8 ./Source/acpica/utilities/utosi.o
 .comment       0x0000000000000000       0x12 ./Source/acpica/utilities/utxface.o
 .eh_frame      0x0000000000000000      0x198 ./Source/acpica/utilities/utxface.o
 .comment       0x0000000000000000       0x12 ./Source/acpica/utilities/utcopy.o
 .eh_frame      0x0000000000000000      0x178 ./Source/acpica/utilities/utcopy.o
 .comment       0x0000000000000000       0x12 ./Source/acpica/utilities/utids.o
 .eh_frame      0x0000000000000000       0x98 ./Source/acpica/utilities/utids.o
 .comment       0x0000000000000000       0x12 ./Source/acpica/utilities/utbuffer.o
 .eh_frame      0x0000000000000000       0x58 ./Source/acpica/utilities/utbuffer.o
 .comment       0x0000000000000000       0x12 ./Source/acpica/utilities/utglobal.o
 .comment       0x0000000000000000       0x12 ./Source/acpica/utilities/utxfinit.o
 .eh_frame      0x0000000000000000       0x78 ./Source/acpica/utilities/utxfinit.o
 .comment       0x0000000000000000       0x12 ./Source/acpica/utilities/utstate.o
 .eh_frame      0x0000000000000000      0x120 ./Source/acpica/utilities/utstate.o
 .comment       0x0000000000000000       0x12 ./Source/acpica/utilities/uterror.o
 .eh_frame      0x0000000000000000       0xb8 ./Source/acpica/utilities/uterror.o
 .comment       0x0000000000000000       0x12 ./Source/acpica/utilities/utstring.o
 .eh_frame      0x0000000000000000       0x58 ./Source/acpica/utilities/utstring.o
 .comment       0x0000000000000000       0x12 ./Source/acpica/utilities/utdecode.o
 .eh_frame      0x0000000000000000      0x178 ./Source/acpica/utilities/utdecode.o
 .comment       0x0000000000000000       0x12 ./Source/acpica/utilities/utdelete.o
 .eh_frame      0x0000000000000000       0xd8 ./Source/acpica/utilities/utdelete.o
 .comment       0x0000000000000000       0x12 ./Source/acpica/utilities/utownerid.o
 .eh_frame      0x0000000000000000       0x5c ./Source/acpica/utilities/utownerid.o
 .comment       0x0000000000000000       0x12 ./Source/acpica/utilities/utascii.o
 .eh_frame      0x0000000000000000       0x78 ./Source/acpica/utilities/utascii.o
 .comment       0x0000000000000000       0x12 ./Source/acpica/utilities/utexcep.o
 .eh_frame      0x0000000000000000       0x58 ./Source/acpica/utilities/utexcep.o
 .comment       0x0000000000000000       0x12 ./Source/acpica/utilities/utpredef.o
 .eh_frame      0x0000000000000000       0x78 ./Source/acpica/utilities/utpredef.o
 .comment       0x0000000000000000       0x12 ./Source/acpica/utilities/utdebug.o
 .comment       0x0000000000000000       0x12 ./Source/acpica/utilities/uthex.o
 .eh_frame      0x0000000000000000       0x84 ./Source/acpica/utilities/uthex.o
 .comment       0x0000000000000000       0x12 ./Source/acpica/utilities/uttrack.o
 .comment       0x0000000000000000       0x12 ./Source/acpica/utilities/utresrc.o
 .eh_frame      0x0000000000000000       0xfc ./Source/acpica/utilities/utresrc.o
 .comment       0x0000000000000000       0x12 ./Source/acpica/utilities/utlock.o
 .eh_frame      0x0000000000000000       0xd8 ./Source/acpica/utilities/utlock.o
 .comment       0x0000000000000000       0x12 ./Source/acpica/utilities/utstrsuppt.o
 .eh_frame      0x0000000000000000      0x184 ./Source/acpica/utilities/utstrsuppt.o
 .comment       0x0000000000000000       0x12 ./Source/acpica/utilities/utalloc.o
 .eh_frame      0x0000000000000000       0xb8 ./Source/acpica/utilities/utalloc.o
 .comment       0x0000000000000000       0x12 ./Source/acpica/utilities/utxfmutex.o
 .eh_frame      0x0000000000000000       0x78 ./Source/acpica/utilities/utxfmutex.o
 .comment       0x0000000000000000       0x12 ./Source/acpica/utilities/utprint.o
 .eh_frame      0x0000000000000000      0x14c ./Source/acpica/utilities/utprint.o
 .comment       0x0000000000000000       0x12 ./Source/acpica/utilities/utcache.o
 .eh_frame      0x0000000000000000       0xb8 ./Source/acpica/utilities/utcache.o
 .comment       0x0000000000000000       0x12 ./Source/acpica/utilities/utuuid.o
 .comment       0x0000000000000000       0x12 ./Source/acpica/utilities/utmath.o
 .eh_frame      0x0000000000000000       0xdc ./Source/acpica/utilities/utmath.o
 .comment       0x0000000000000000       0x12 ./Source/acpica/utilities/utmutex.o
 .eh_frame      0x0000000000000000       0xe0 ./Source/acpica/utilities/utmutex.o
 .comment       0x0000000000000000       0x12 ./Source/acpica/utilities/utstrtoul64.o
 .eh_frame      0x0000000000000000       0x78 ./Source/acpica/utilities/utstrtoul64.o
 .comment       0x0000000000000000       0x12 ./Source/acpica/utilities/utresdecode.o
 .comment       0x0000000000000000       0x12 ./Source/acpica/utilities/utnonansi.o
 .eh_frame      0x0000000000000000       0xfc ./Source/acpica/utilities/utnonansi.o
 .comment       0x0000000000000000       0x12 ./Source/acpica/utilities/utmisc.o
 .eh_frame      0x0000000000000000       0xb8 ./Source/acpica/utilities/utmisc.o

Memory Configuration

Name             Origin             Length             Attributes
*default*        0x0000000000000000 0xffffffffffffffff

Linker script and memory map

                0x0000000000010000                . = 0x10000
                0x0000000000010000                kernel_begin = .

.text           0x0000000000010000    0x3edef
 *(._main)
 ._main         0x0000000000010000      0x1dc ./Source/core/NSOKernel.o
                0x0000000000010000                kernel_main
 *(.text)
 .text          0x00000000000101dc        0x0 ./Source/core/NSOKernel.o
 .text          0x00000000000101dc      0x22a ./Source/core/NSOBiosMaps.o
                0x00000000000101dc                kernel_initMemMapB
                0x00000000000101fa                kernel_lookupMemMapB
                0x00000000000102aa                kernel_getMemMapEntry
                0x00000000000102d4                kernel_lookMemMapSB
                0x000000000001033e                kernel_getLargestAddr
                0x00000000000103a3                kernel_getMemMapEntryLength
                0x00000000000103ad                kernel_debugMemMap
 .text          0x0000000000010406       0x5d ./Source/core/NSOThread.o
                0x0000000000010406                kernel_createThread
 .text          0x0000000000010463      0x591 ./Source/core/NSOAllocator.o
                0x0000000000010463                kernel_initAllocation
                0x00000000000104e5                kernel_malloc
                0x0000000000010741                kernel_calloc
                0x000000000001077e                kernel_realloc
                0x00000000000107e4                kernel_free
                0x00000000000108b4                kernel_allocatorSize
                0x00000000000108eb                kernel_debugAllocator
                0x000000000001099b                kernel_extendHEAP
 .text          0x00000000000109f4       0x85 ./Source/core/NSOProcess.o
                0x00000000000109f4                kernel_createNewProcess
 .text          0x0000000000010a79      0x239 ./Source/core/NSOInterrupts.o
                0x0000000000010a79                kernel_initInterrupts
                0x0000000000010b4c                kernel_setupInterruptGate
                0x0000000000010bc9                kernel_setupTrapGate
                0x0000000000010ca2                kernel_flushIDT
 .text          0x0000000000010cb2      0x26e ./Source/core/NSOIOAPIC.o
                0x0000000000010cb2                kernel_newIOAPIC
                0x0000000000010d6d                kernel_readIOAPIC
                0x0000000000010d8f                kernel_writeIOAPIC
                0x0000000000010db5                kernel_readRedirectionTable
                0x0000000000010e28                kernel_writeRedirectionTable
                0x0000000000010e86                kernel_getIOAPIC
                0x0000000000010ee6                kernel_getIOAPICByID
 .text          0x0000000000010f20      0x365 ./Source/core/NSOPAllocator.o
                0x0000000000010f20                kernel_initPageAllocator
                0x0000000000011080                kernel_initPageAllocator2
                0x00000000000110a4                kernel_allocatePage
                0x0000000000011171                kernel_freePage
                0x000000000001119c                kernel_markPage
                0x00000000000111b9                kernel_markPageAddr
                0x00000000000111ce                kernel_findPages
 .text          0x0000000000011285      0x5f8 ./Source/core/NSOPaging.o
                0x0000000000011285                kernel_initPaging
                0x0000000000011364                kernel_createVirtualAddressSpace
                0x0000000000011392                kernel_copyPageDirectories
                0x00000000000113b2                kernel_mapAddress
                0x00000000000115bf                kernel_unmapAddress
                0x00000000000115ee                kernel_unmapIdentity
                0x0000000000011644                kernel_mapIdentity
                0x00000000000116c7                kernel_getPhysicalAddress
                0x0000000000011791                kernel_vAllocatePage
                0x0000000000011820                kernel_vFreePage
 .text          0x000000000001187d       0x9e ./Source/core/NSOSched.o
                0x000000000001187d                kernel_initScheduler
                0x0000000000011883                kernel_scheduler
                0x0000000000011889                kernel_appendNewProcess
 .text          0x000000000001191b       0x4b ./Source/core/NSOCacheControl.o
                0x000000000001191b                kernel_isPATSupported
                0x0000000000011960                kernel_initCacheControl
 .text          0x0000000000011966      0x307 ./Source/core/NSOInterruptController.o
                0x0000000000011966                kernel_initateInterruptController
                0x0000000000011a27                kernel_overrideIsaIRQ
                0x0000000000011a5b                kernel_getIrqMapping
                0x0000000000011be2                kernel_requestIRQ
                0x0000000000011c2a                kernel_isrHandler
 .text          0x0000000000011c6d      0x86c ./Source/core/NSOPCI.o
                0x0000000000011c6d                kernel_pciReadConfig8
                0x0000000000011ccb                kernel_pciReadConfig16
                0x0000000000011d29                kernel_pciReadConfig32
                0x0000000000011d9c                kernel_enumeratePCI
                0x0000000000011db2                kernel_pciSearchDevice
                0x0000000000011e2d                kernel_pciSearchDeviceByClass
                0x0000000000011f9c                kernel_pciWriteConfig32
                0x00000000000123e4                kernel_pciDebug
 .text          0x00000000000124d9      0x1dd ./Source/core/NSOMP.o
                0x00000000000124d9                kernel_newProcessor
                0x000000000001251f                kernel_getProc
                0x0000000000012564                kernel_currentCPU
                0x000000000001258b                kernel_getProcByAPIC
                0x00000000000125c0                kernel_setupTSS
                0x000000000001260e                kernel_getNumOfProc
 .text          0x00000000000126b6      0x106 ./Source/core/NSOCExceptions.o
                0x00000000000126b6                kernel_divEX
                0x00000000000126c9                kernel_generalProtectionEX
                0x0000000000012735                kernel_doubleFaultEX
                0x000000000001275c                kernel_pagingEX
 .text          0x00000000000127bc       0x24 ./Source/core/NSOIDE.o
                0x00000000000127bc                kernel_detectIDE
 .text          0x00000000000127e0      0x135 ./Source/devices/NSOAPIC.o
                0x00000000000127e0                kernel_initAPIC
                0x000000000001283f                kernel_initAPIC2
                0x000000000001287d                kernel_hasAPIC
                0x00000000000128c2                kernel_readAPICRegister
                0x00000000000128df                kernel_writeAPICRegister
                0x0000000000012900                kernel_apicEOI
 .text          0x0000000000012915      0x2e1 ./Source/devices/NSOHPET.o
                0x0000000000012915                kernel_initHPET
                0x00000000000129e2                kernel_getNumOfTimers
                0x0000000000012a42                kernel_getTimerFreq
                0x0000000000012a62                kernel_setupTimer
 .text          0x0000000000012bf6      0x14d ./Source/devices/NSO8259A.o
                0x0000000000012bf6                kernel_init8259A
                0x0000000000012cd1                kernel_8259EOI
                0x0000000000012d07                kernel_mask8259INTS
 .text          0x0000000000012d43      0x17b ./Source/devices/NSOPIT.o
                0x0000000000012d94                kernel_initPIT
                0x0000000000012e36                kernel_sleepPIT
                0x0000000000012e46                kernel_setTimer
 .text          0x0000000000012ebe       0x17 ./Source/utils/NSOLocks2.o
                0x0000000000012ebe                kernel_createLock
 .text          0x0000000000012ed5      0x12c ./Source/utils/NSOStringUtils.o
                0x0000000000012ed5                kernel_stringLength
                0x0000000000012f09                kernel_stringOccurance
                0x0000000000012f6f                kernel_stringCompare
                0x0000000000012fb0                kernel_stringCompareRAW
 .text          0x0000000000013001      0x7f2 ./Source/utils/NSOBochs.o
                0x0000000000013001                kernel_printfBOCHS
                0x000000000001302c                kernel_vprintfBOCHS
                0x000000000001373e                kernel_breakBOCHS
 .text          0x00000000000137f3      0x3a8 ./Source/utils/NSOCoreUtils.o
                0x00000000000137f3                kernel_out8
                0x0000000000013814                kernel_out16
                0x0000000000013835                kernel_out32
                0x000000000001384d                kernel_in8
                0x000000000001386e                kernel_in16
                0x0000000000013893                kernel_in32
                0x00000000000138b6                kernel_sti
                0x00000000000138bd                kernel_cli
                0x00000000000138c4                kernel_hlt
                0x00000000000138cb                kernel_getEFLAGS
                0x00000000000138e2                kernel_setEFLAGS
                0x00000000000138ed                kernel_panic
                0x0000000000013912                kernel_isCpuidSupported
                0x0000000000013952                kernel_cpuid
                0x0000000000013979                kernel_checkStandardCpuid
                0x0000000000013989                kernel_checkExtendedCpuid
                0x0000000000013999                kernel_getMaxCpuid
                0x00000000000139fd                kernel_memset
                0x0000000000013a36                kernel_memcpy
                0x0000000000013a77                kernel_memcmp
                0x0000000000013ad6                kernel_wrmsr
                0x0000000000013b08                kernel_rdmsr
                0x0000000000013b61                kernel_calculateChecksum
 .text          0x0000000000013b9b      0x6fe ./Source/acpica/NSOACPIOSL.o
                0x0000000000013b9b                AcpiOsInitialize
                0x0000000000013bb8                AcpiOsTerminate
                0x0000000000013bd5                AcpiOsGetRootPointer
                0x0000000000013bf6                AcpiOsPredefinedOverride
                0x0000000000013c09                AcpiOsTableOverride
                0x0000000000013c1c                AcpiOsPhysicalTableOverride
                0x0000000000013c38                AcpiOsMapMemory
                0x0000000000013c77                AcpiOsUnmapMemory
                0x0000000000013caa                AcpiOsGetPhysicalAddress
                0x0000000000013d01                AcpiOsAllocate
                0x0000000000013d19                AcpiOsFree
                0x0000000000013d2f                AcpiOsReadable
                0x0000000000013d39                AcpiOsWriteable
                0x0000000000013d43                AcpiOsGetThreadId
                0x0000000000013d52                AcpiOsExecute
                0x0000000000013d5c                AcpiOsSleep
                0x0000000000013d71                AcpiOsStall
                0x0000000000013d77                AcpiOsWaitEventsComplete
                0x0000000000013d7d                AcpiOsCreateMutex
                0x0000000000013dbe                AcpiOsDeleteMutex
                0x0000000000013dd5                AcpiOsAcquireMutex
                0x0000000000013e04                AcpiOsReleaseMutex
                0x0000000000013e1b                AcpiOsCreateSemaphore
                0x0000000000013e25                AcpiOsDeleteSemaphore
                0x0000000000013e2f                AcpiOsWaitSemaphore
                0x0000000000013e43                AcpiOsSignalSemaphore
                0x0000000000013e4d                AcpiOsCreateLock
                0x0000000000013e84                AcpiOsDeleteLock
                0x0000000000013e9b                AcpiOsAcquireLock
                0x0000000000013ebc                AcpiOsReleaseLock
                0x0000000000013ee1                AcpiOsInstallInterruptHandler
                0x0000000000013f01                AcpiOsRemoveInterruptHandler
                0x0000000000013f21                AcpiOsReadMemory
                0x0000000000013f9b                AcpiOsWriteMemory
                0x0000000000014017                AcpiOsReadPort
                0x0000000000014087                AcpiOsWritePort
                0x00000000000140f2                AcpiOsReadPciConfiguration
                0x00000000000141e2                AcpiOsWritePciConfiguration
                0x000000000001420e                AcpiOsPrintf
                0x000000000001422f                AcpiOsVprintf
                0x0000000000014249                AcpiOsGetTimer
                0x0000000000014258                AcpiOsSignal
                0x0000000000014262                AcpiOsEnterSleep
                0x0000000000014275                AcpiOsWaitCommandReady
                0x000000000001427f                AcpiOsNotifyCommandComplete
                0x0000000000014289                AcpiOsInitializeDebugger
                0x0000000000014293                AcpiOsTerminateDebugger
 .text          0x0000000000014299     0x132b ./Source/acpica/debugger/dbcmds.o
                0x0000000000014299                AcpiDbConvertToNode
                0x000000000001436b                AcpiDbSleep
                0x0000000000014591                AcpiDbDisplayLocks
                0x0000000000014609                AcpiDbDisplayTableInfo
                0x000000000001475f                AcpiDbUnloadAcpiTable
                0x00000000000147d2                AcpiDbSendNotify
                0x000000000001486e                AcpiDbDisplayInterfaces
                0x00000000000149dd                AcpiDbDisplayTemplate
                0x00000000000152c8                AcpiDbDisplayResources
                0x000000000001539a                AcpiDbGenerateGpe
                0x0000000000015426                AcpiDbGenerateSci
                0x0000000000015434                AcpiDbTrace
 .text          0x00000000000155c4     0x10fd ./Source/acpica/debugger/dbtest.o
                0x00000000000155c4                AcpiDbExecuteTest
 .text          0x00000000000166c1      0x43f ./Source/acpica/debugger/dbutils.o
                0x00000000000166c1                AcpiDbMatchArgument
                0x0000000000016743                AcpiDbSetOutputDestination
                0x000000000001677c                AcpiDbDumpExternalObject
                0x0000000000016993                AcpiDbPrepNamestring
                0x00000000000169fa                AcpiDbLocalNsLookup
                0x0000000000016aa6                AcpiDbUint32ToHexString
 .text          0x0000000000016b00      0xea6 ./Source/acpica/debugger/dbexec.o
                0x0000000000016b00                AcpiDbDeleteObjects
                0x0000000000016f9c                AcpiDbExecute
                0x00000000000174b5                AcpiDbCreateExecutionThread
                0x00000000000175da                AcpiDbCreateExecutionThreads
 .text          0x00000000000179a6      0x509 ./Source/acpica/debugger/dbmethod.o
                0x00000000000179a6                AcpiDbSetMethodBreakpoint
                0x0000000000017a28                AcpiDbSetMethodCallBreakpoint
                0x0000000000017a4f                AcpiDbSetMethodData
                0x0000000000017e66                AcpiDbEvaluatePredefinedNames
 .text          0x0000000000017eaf     0x1313 ./Source/acpica/debugger/dbdisply.o
                0x0000000000017f7a                AcpiDbDecodeAndDisplayObject
                0x000000000001835e                AcpiDbDisplayMethodInfo
                0x00000000000184f3                AcpiDbDisplayLocals
                0x0000000000018535                AcpiDbDisplayArguments
                0x0000000000018577                AcpiDbDisplayResults
                0x0000000000018680                AcpiDbDisplayCallingTree
                0x000000000001870b                AcpiDbDisplayObjectType
                0x00000000000188d8                AcpiDbDisplayResultObject
                0x0000000000018955                AcpiDbDisplayArgumentObject
                0x00000000000189c2                AcpiDbDisplayGpes
                0x0000000000018e18                AcpiDbDisplayHandlers
 .text          0x00000000000191c2      0x890 ./Source/acpica/debugger/dbstats.o
                0x0000000000019510                AcpiDbDisplayStatistics
 .text          0x0000000000019a52      0x8fe ./Source/acpica/debugger/dbobject.o
                0x0000000000019a52                AcpiDbDumpMethodInfo
                0x0000000000019b0d                AcpiDbDecodeInternalObject
                0x0000000000019d5b                AcpiDbDisplayInternalObject
                0x000000000001a0af                AcpiDbDecodeLocals
                0x000000000001a1f7                AcpiDbDecodeArguments
 .text          0x000000000001a350        0x0 ./Source/acpica/debugger/dbfileio.o
 .text          0x000000000001a350      0x2df ./Source/acpica/debugger/dbhistry.o
                0x000000000001a350                AcpiDbAddToHistory
                0x000000000001a4f4                AcpiDbDisplayHistory
                0x000000000001a573                AcpiDbGetFromHistory
                0x000000000001a5b1                AcpiDbGetHistoryByIndex
 .text          0x000000000001a62f      0xb21 ./Source/acpica/debugger/dbinput.o
                0x000000000001a7c2                AcpiDbGetNextToken
                0x000000000001aab2                AcpiDbCommandDispatch
                0x000000000001b09f                AcpiDbExecuteThread
                0x000000000001b0b4                AcpiDbUserCommands
 .text          0x000000000001b150      0x5a9 ./Source/acpica/debugger/dbxface.o
                0x000000000001b1d8                AcpiDbSignalBreakPoint
                0x000000000001b22d                AcpiDbSingleStep
                0x000000000001b52f                AcpiInitializeDebugger
                0x000000000001b666                AcpiTerminateDebugger
                0x000000000001b6d3                AcpiSetDebuggerThreadId
 .text          0x000000000001b6f9      0xad1 ./Source/acpica/debugger/dbconvert.o
                0x000000000001b6f9                AcpiDbHexCharToValue
                0x000000000001b8fd                AcpiDbConvertToPackage
                0x000000000001b9ca                AcpiDbConvertToObject
                0x000000000001ba66                AcpiDbEncodePldBuffer
                0x000000000001bd7e                AcpiDbDumpPldBuffer
 .text          0x000000000001c1ca      0xd70 ./Source/acpica/debugger/dbnames.o
                0x000000000001c1ca                AcpiDbSetScope
                0x000000000001c2f2                AcpiDbDumpNamespace
                0x000000000001c3c4                AcpiDbDumpNamespacePaths
                0x000000000001c420                AcpiDbDumpNamespaceByOwner
                0x000000000001c5a0                AcpiDbFindNameInNamespace
                0x000000000001c772                AcpiDbCheckPredefinedNames
                0x000000000001c8ab                AcpiDbDisplayObjects
                0x000000000001cba8                AcpiDbCheckIntegrity
                0x000000000001cc6a                AcpiDbFindReferences
                0x000000000001cf15                AcpiDbGetBusInfo
 .text          0x000000000001cf3a      0xa91 ./Source/acpica/dispatcher/dswexec.o
                0x000000000001cf3a                AcpiDsGetPredicateValue
                0x000000000001d158                AcpiDsExecBeginOp
                0x000000000001d35d                AcpiDsExecEndOp
 .text          0x000000000001d9cb      0xa0b ./Source/acpica/dispatcher/dsmethod.o
                0x000000000001d9cb                AcpiDsAutoSerializeMethod
                0x000000000001db26                AcpiDsMethodError
                0x000000000001dc8f                AcpiDsBeginMethodExecution
                0x000000000001df3f                AcpiDsCallControlMethod
                0x000000000001e144                AcpiDsRestartControlMethod
                0x000000000001e1e1                AcpiDsTerminateControlMethod
 .text          0x000000000001e3d6      0x13d ./Source/acpica/dispatcher/dsdebug.o
                0x000000000001e41e                AcpiDsDumpMethodStack
 .text          0x000000000001e513      0x5a2 ./Source/acpica/dispatcher/dspkginit.o
                0x000000000001e513                AcpiDsBuildInternalPackageObj
                0x000000000001e86e                AcpiDsInitPackageElement
 .text          0x000000000001eab5      0x910 ./Source/acpica/dispatcher/dswload2.o
                0x000000000001eab5                AcpiDsLoad2BeginOp
                0x000000000001ef2d                AcpiDsLoad2EndOp
 .text          0x000000000001f3c5      0x6be ./Source/acpica/dispatcher/dswload.o
                0x000000000001f3c5                AcpiDsInitCallbacks
                0x000000000001f495                AcpiDsLoad1BeginOp
                0x000000000001f802                AcpiDsLoad1EndOp
 .text          0x000000000001fa83      0x915 ./Source/acpica/dispatcher/dswstate.o
                0x000000000001fa83                AcpiDsResultPop
                0x000000000001fbb9                AcpiDsResultPush
                0x000000000001fe2a                AcpiDsObjStackPush
                0x000000000001feab                AcpiDsObjStackPop
                0x000000000001ff32                AcpiDsObjStackPopAndDelete
                0x000000000001ffb6                AcpiDsGetCurrentWalkState
                0x000000000001ffce                AcpiDsPushWalkState
                0x000000000001ffe8                AcpiDsPopWalkState
                0x000000000002000d                AcpiDsCreateWalkState
                0x00000000000200a1                AcpiDsInitAmlWalk
                0x000000000002026f                AcpiDsDeleteWalkState
 .text          0x0000000000020398      0xa88 ./Source/acpica/dispatcher/dsopcode.o
                0x0000000000020398                AcpiDsInitializeRegion
                0x000000000002069f                AcpiDsEvalBufferFieldOperands
                0x0000000000020813                AcpiDsEvalRegionOperands
                0x00000000000209b3                AcpiDsEvalTableRegionOperands
                0x0000000000020b6b                AcpiDsEvalDataObjectOperands
                0x0000000000020d24                AcpiDsEvalBankFieldOperands
 .text          0x0000000000020e20      0x741 ./Source/acpica/dispatcher/dsobject.o
                0x0000000000020e20                AcpiDsBuildInternalObject
                0x0000000000020fc3                AcpiDsBuildInternalBufferObj
                0x000000000002112d                AcpiDsCreateNode
                0x00000000000211c5                AcpiDsInitObjectFromOp
 .text          0x0000000000021561      0x985 ./Source/acpica/dispatcher/dsutils.o
                0x0000000000021561                AcpiDsClearImplicitReturn
                0x00000000000215a6                AcpiDsDoImplicitReturn
                0x0000000000021621                AcpiDsIsResultUsed
                0x00000000000217c5                AcpiDsDeleteResultIfNotUsed
                0x000000000002183a                AcpiDsResolveOperands
                0x0000000000021898                AcpiDsClearOperands
                0x00000000000218ee                AcpiDsCreateOperand
                0x0000000000021c61                AcpiDsCreateOperands
                0x0000000000021d57                AcpiDsEvaluateNamePath
 .text          0x0000000000021ee6      0x470 ./Source/acpica/dispatcher/dscontrol.o
                0x0000000000021ee6                AcpiDsExecBeginControlOp
                0x000000000002200d                AcpiDsExecEndControlOp
 .text          0x0000000000022356      0x162 ./Source/acpica/dispatcher/dswscope.o
                0x0000000000022356                AcpiDsScopeStackClear
                0x0000000000022396                AcpiDsScopeStackPush
                0x000000000002245d                AcpiDsScopeStackPop
 .text          0x00000000000224b8      0x6ba ./Source/acpica/dispatcher/dsmthdat.o
                0x00000000000224b8                AcpiDsMethodDataInit
                0x000000000002263d                AcpiDsMethodDataDeleteAll
                0x00000000000226eb                AcpiDsMethodDataInitArgs
                0x0000000000022763                AcpiDsMethodDataGetNode
                0x0000000000022891                AcpiDsMethodDataGetValue
                0x0000000000022a23                AcpiDsStoreObjectToLocal
 .text          0x0000000000022b72      0x3d2 ./Source/acpica/dispatcher/dsargs.o
                0x0000000000022d01                AcpiDsGetBufferFieldArguments
                0x0000000000022d61                AcpiDsGetBankFieldArguments
                0x0000000000022dc1                AcpiDsGetBufferArguments
                0x0000000000022e33                AcpiDsGetPackageArguments
                0x0000000000022ea5                AcpiDsGetRegionArguments
 .text          0x0000000000022f44      0xa0b ./Source/acpica/dispatcher/dsfield.o
                0x0000000000022f44                AcpiDsCreateBufferField
                0x0000000000023447                AcpiDsCreateField
                0x0000000000023552                AcpiDsInitFieldObjects
                0x00000000000236fa                AcpiDsCreateBankField
                0x000000000002382e                AcpiDsCreateIndexField
 .text          0x000000000002394f      0x231 ./Source/acpica/dispatcher/dsinit.o
                0x0000000000023acf                AcpiDsInitializeObjects
 .text          0x0000000000023b80      0xa18 ./Source/acpica/events/evxfgpe.o
                0x0000000000023b80                AcpiUpdateAllGpes
                0x0000000000023c10                AcpiEnableGpe
                0x0000000000023c8f                AcpiDisableGpe
                0x0000000000023cf4                AcpiSetGpe
                0x0000000000023d9f                AcpiMaskGpe
                0x0000000000023e11                AcpiMarkGpeForWake
                0x0000000000023e7e                AcpiSetupGpeForWake
                0x000000000002400a                AcpiSetGpeWakeMask
                0x0000000000024117                AcpiClearGpe
                0x0000000000024185                AcpiGetGpeStatus
                0x00000000000241f6                AcpiFinishGpe
                0x000000000002425d                AcpiDisableAllGpes
                0x0000000000024298                AcpiEnableAllRuntimeGpes
                0x00000000000242d3                AcpiEnableAllWakeupGpes
                0x000000000002430e                AcpiInstallGpeBlock
                0x0000000000024460                AcpiRemoveGpeBlock
                0x000000000002452a                AcpiGetGpeDevice
 .text          0x0000000000024598      0x39e ./Source/acpica/events/evxfevnt.o
                0x0000000000024598                AcpiEnable
                0x000000000002460c                AcpiDisable
                0x000000000002466f                AcpiEnableEvent
                0x0000000000024741                AcpiDisableEvent
                0x0000000000024812                AcpiClearEvent
                0x000000000002486a                AcpiGetEventStatus
 .text          0x0000000000024936      0x1fb ./Source/acpica/events/evxfregn.o
                0x0000000000024936                AcpiInstallAddressSpaceHandler
                0x00000000000249dc                AcpiRemoveAddressSpaceHandler
 .text          0x0000000000024b31      0x412 ./Source/acpica/events/evgpeutil.o
                0x0000000000024b31                AcpiEvWalkGpeList
                0x0000000000024bd0                AcpiEvGetGpeDevice
                0x0000000000024c33                AcpiEvGetGpeXruptBlock
                0x0000000000024d63                AcpiEvDeleteGpeXrupt
                0x0000000000024e2e                AcpiEvDeleteGpeHandlers
 .text          0x0000000000024f43      0x1a8 ./Source/acpica/events/evsci.o
                0x0000000000024f43                AcpiEvSciDispatch
                0x0000000000025001                AcpiEvGpeXruptHandler
                0x000000000002502a                AcpiEvInstallSciHandler
                0x0000000000025061                AcpiEvRemoveAllSciHandlers
 .text          0x00000000000250eb      0x4c0 ./Source/acpica/events/evhandler.o
                0x00000000000250eb                AcpiEvInstallRegionHandlers
                0x0000000000025177                AcpiEvHasDefaultHandler
                0x00000000000252ea                AcpiEvFindRegionHandler
                0x000000000002531f                AcpiEvInstallSpaceHandler
 .text          0x00000000000255ab      0x562 ./Source/acpica/events/evrgnini.o
                0x00000000000255ab                AcpiEvSystemMemoryRegionSetup
                0x0000000000025652                AcpiEvIoSpaceRegionSetup
                0x0000000000025675                AcpiEvPciConfigRegionSetup
                0x00000000000258ed                AcpiEvIsPciRootBridge
                0x00000000000259c8                AcpiEvPciBarRegionSetup
                0x00000000000259d2                AcpiEvCmosRegionSetup
                0x00000000000259dc                AcpiEvDefaultRegionSetup
                0x00000000000259ff                AcpiEvInitializeRegion
 .text          0x0000000000025b0d      0xd16 ./Source/acpica/events/evxface.o
                0x0000000000025b0d                AcpiInstallNotifyHandler
                0x0000000000025d73                AcpiRemoveNotifyHandler
                0x0000000000025f9a                AcpiInstallExceptionHandler
                0x0000000000025fe7                AcpiInstallSciHandler
                0x00000000000260d5                AcpiRemoveSciHandler
                0x00000000000261ba                AcpiInstallGlobalEventHandler
                0x000000000002621c                AcpiInstallFixedEventHandler
                0x00000000000262f7                AcpiRemoveFixedEventHandler
                0x000000000002659e                AcpiInstallGpeHandler
                0x00000000000265c8                AcpiInstallGpeRawHandler
                0x00000000000265f2                AcpiRemoveGpeHandler
                0x0000000000026788                AcpiAcquireGlobalLock
                0x00000000000267e8                AcpiReleaseGlobalLock
 .text          0x0000000000026823      0x2f4 ./Source/acpica/events/evmisc.o
                0x0000000000026823                AcpiEvIsNotifyObject
                0x0000000000026850                AcpiEvQueueNotifyRequest
                0x0000000000026a05                AcpiEvTerminate
 .text          0x0000000000026b17      0x92d ./Source/acpica/events/evgpe.o
                0x0000000000026b17                AcpiEvUpdateGpeEnableMask
                0x0000000000026b89                AcpiEvEnableGpe
                0x0000000000026ba7                AcpiEvMaskGpe
                0x0000000000026c7c                AcpiEvAddGpeReference
                0x0000000000026cf9                AcpiEvRemoveGpeReference
                0x0000000000026d78                AcpiEvLowGetGpeInfo
                0x0000000000026dda                AcpiEvGetGpeEventInfo
                0x0000000000026e63                AcpiEvGpeDetect
                0x0000000000027116                AcpiEvFinishGpe
                0x0000000000027167                AcpiEvDetectGpe
                0x00000000000272d0                AcpiEvGpeDispatch
 .text          0x0000000000027444      0x311 ./Source/acpica/events/evevent.o
                0x0000000000027444                AcpiEvInitializeEvents
                0x00000000000274bb                AcpiEvInstallXruptHandlers
                0x00000000000275be                AcpiEvFixedEventDetect
 .text          0x0000000000027755      0x9d6 ./Source/acpica/events/evregion.o
                0x0000000000027755                AcpiEvInitializeOpRegions
                0x00000000000277e1                AcpiEvAddressSpaceDispatch
                0x0000000000027ada                AcpiEvDetachRegion
                0x0000000000027ce0                AcpiEvAttachRegion
                0x0000000000027d30                AcpiEvExecuteRegMethod
                0x0000000000027f1b                AcpiEvExecuteRegMethods
 .text          0x000000000002812b      0x725 ./Source/acpica/events/evgpeblk.o
                0x00000000000281f5                AcpiEvDeleteGpeBlock
                0x000000000002855b                AcpiEvCreateGpeBlock
                0x00000000000286dc                AcpiEvInitializeGpeBlock
 .text          0x0000000000028850      0x2db ./Source/acpica/events/evglock.o
                0x0000000000028850                AcpiEvInitGlobalLockHandler
                0x00000000000288de                AcpiEvRemoveGlobalLockHandler
                0x0000000000028996                AcpiEvAcquireGlobalLock
                0x0000000000028aa7                AcpiEvReleaseGlobalLock
 .text          0x0000000000028b2b      0x4d6 ./Source/acpica/events/evgpeinit.o
                0x0000000000028b2b                AcpiEvGpeInitialize
                0x0000000000028d6b                AcpiEvUpdateGpes
                0x0000000000028e60                AcpiEvMatchGpeMethod
 .text          0x0000000000029001      0x670 ./Source/acpica/executer/exmisc.o
                0x0000000000029001                AcpiExGetObjectReference
                0x0000000000029101                AcpiExDoMathOp
                0x00000000000292d4                AcpiExDoLogicalNumericOp
                0x00000000000293d9                AcpiExDoLogicalOp
 .text          0x0000000000029671      0x366 ./Source/acpica/executer/exresnte.o
                0x0000000000029671                AcpiExResolveNodeToValue
 .text          0x00000000000299d7      0x473 ./Source/acpica/executer/exnames.o
                0x0000000000029bb9                AcpiExGetNameString
 .text          0x0000000000029e4a     0x1162 ./Source/acpica/executer/exoparg1.o
                0x0000000000029e4a                AcpiExOpcode_0A_0T_1R
                0x0000000000029f00                AcpiExOpcode_1A_0T_0R
                0x000000000002a002                AcpiExOpcode_1A_1T_0R
                0x000000000002a07c                AcpiExOpcode_1A_1T_1R
                0x000000000002a858                AcpiExOpcode_1A_0T_1R
 .text          0x000000000002afac      0x454 ./Source/acpica/executer/exregion.o
                0x000000000002afac                AcpiExSystemMemorySpaceHandler
                0x000000000002b28a                AcpiExSystemIoSpaceHandler
                0x000000000002b2fb                AcpiExPciConfigSpaceHandler
                0x000000000002b380                AcpiExCmosSpaceHandler
                0x000000000002b392                AcpiExPciBarSpaceHandler
                0x000000000002b3a4                AcpiExDataTableSpaceHandler
 .text          0x000000000002b400      0x1fb ./Source/acpica/executer/extrace.o
                0x000000000002b47a                AcpiExTracePoint
                0x000000000002b489                AcpiExStartTraceMethod
                0x000000000002b540                AcpiExStopTraceMethod
                0x000000000002b5cb                AcpiExStartTraceOpcode
                0x000000000002b5e3                AcpiExStopTraceOpcode
 .text          0x000000000002b5fb      0x37f ./Source/acpica/executer/exoparg6.o
                0x000000000002b721                AcpiExOpcode_6A_0T_1R
 .text          0x000000000002b97a      0x341 ./Source/acpica/executer/exoparg3.o
                0x000000000002b97a                AcpiExOpcode_3A_0T_0R
                0x000000000002ba79                AcpiExOpcode_3A_1T_1R
 .text          0x000000000002bcbb      0x3b1 ./Source/acpica/executer/exserial.o
                0x000000000002bcbb                AcpiExReadGpio
                0x000000000002bd07                AcpiExWriteGpio
                0x000000000002bd6e                AcpiExReadSerialBus
                0x000000000002becb                AcpiExWriteSerialBus
 .text          0x000000000002c06c      0x511 ./Source/acpica/executer/exconcat.o
                0x000000000002c06c                AcpiExDoConcatenate
                0x000000000002c47b                AcpiExConcatTemplate
 .text          0x000000000002c57d      0xf0d ./Source/acpica/executer/exfldio.o
                0x000000000002c7c8                AcpiExAccessRegion
                0x000000000002cbc3                AcpiExWriteWithUpdateRule
                0x000000000002cdb8                AcpiExExtractFromField
                0x000000000002d0fd                AcpiExInsertIntoField
 .text          0x000000000002d48a      0x5dd ./Source/acpica/executer/exmutex.o
                0x000000000002d48a                AcpiExUnlinkMutex
                0x000000000002d531                AcpiExAcquireMutexObject
                0x000000000002d608                AcpiExAcquireMutex
                0x000000000002d754                AcpiExReleaseMutexObject
                0x000000000002d7f3                AcpiExReleaseMutex
                0x000000000002d9d6                AcpiExReleaseAllMutexes
 .text          0x000000000002da67      0x8e5 ./Source/acpica/executer/exoparg2.o
                0x000000000002da67                AcpiExOpcode_2A_0T_0R
                0x000000000002db36                AcpiExOpcode_2A_2T_1R
                0x000000000002dcb6                AcpiExOpcode_2A_1T_1R
                0x000000000002e168                AcpiExOpcode_2A_0T_1R
 .text          0x000000000002e34c      0xb67 ./Source/acpica/executer/exdump.o
                0x000000000002e89a                AcpiExDumpOperand
                0x000000000002e8a0                AcpiExDumpOperands
                0x000000000002e91e                AcpiExDumpNamespaceNode
                0x000000000002ed10                AcpiExDumpObjectDescriptor
 .text          0x000000000002eeb3      0x59c ./Source/acpica/executer/exstore.o
                0x000000000002eeb3                AcpiExStore
                0x000000000002f200                AcpiExStoreObjectToNode
 .text          0x000000000002f44f      0x777 ./Source/acpica/executer/exconvrt.o
                0x000000000002f44f                AcpiExConvertToInteger
                0x000000000002f5b6                AcpiExConvertToBuffer
                0x000000000002f824                AcpiExConvertToString
                0x000000000002fa7e                AcpiExConvertToTargetType
 .text          0x000000000002fbc6      0x20d ./Source/acpica/executer/exstorob.o
                0x000000000002fbc6                AcpiExStoreBufferToBuffer
                0x000000000002fcc0                AcpiExStoreStringToString
 .text          0x000000000002fdd3      0x522 ./Source/acpica/executer/excreate.o
                0x000000000002fdd3                AcpiExCreateAlias
                0x000000000002fe58                AcpiExCreateEvent
                0x000000000002fedb                AcpiExCreateMutex
                0x000000000002ff84                AcpiExCreateRegion
                0x00000000000300dc                AcpiExCreateProcessor
                0x0000000000030184                AcpiExCreatePowerResource
                0x0000000000030218                AcpiExCreateMethod
 .text          0x00000000000302f5      0x4c5 ./Source/acpica/executer/exfield.o
                0x00000000000302f5                AcpiExGetProtocolBufferLength
                0x000000000003034b                AcpiExReadDataFromField
                0x000000000003056e                AcpiExWriteDataToField
 .text          0x00000000000307ba      0x54e ./Source/acpica/executer/exprep.o
                0x0000000000030875                AcpiExPrepCommonFieldObject
                0x000000000003090f                AcpiExPrepFieldValue
 .text          0x0000000000030d08      0x56e ./Source/acpica/executer/exdebug.o
                0x0000000000030d08                AcpiExDoDebugObject
 .text          0x0000000000031276      0x2a0 ./Source/acpica/executer/exstoren.o
                0x0000000000031276                AcpiExResolveObject
                0x000000000003139a                AcpiExStoreObjectToObject
 .text          0x0000000000031516      0x630 ./Source/acpica/executer/exresolv.o
                0x0000000000031516                AcpiExResolveToValue
                0x000000000003181f                AcpiExResolveMultiple
 .text          0x0000000000031b46      0x64d ./Source/acpica/executer/exconfig.o
                0x0000000000031ba6                AcpiExLoadTableOp
                0x0000000000031e3f                AcpiExLoadOp
                0x00000000000320d8                AcpiExUnloadTable
 .text          0x0000000000032193      0x202 ./Source/acpica/executer/exsystem.o
                0x0000000000032193                AcpiExSystemWaitSemaphore
                0x00000000000321ed                AcpiExSystemWaitMutex
                0x0000000000032243                AcpiExSystemDoStall
                0x000000000003228f                AcpiExSystemDoSleep
                0x00000000000322e3                AcpiExSystemSignalEvent
                0x0000000000032312                AcpiExSystemWaitEvent
                0x000000000003234c                AcpiExSystemResetEvent
 .text          0x0000000000032395      0x7e5 ./Source/acpica/executer/exresop.o
                0x0000000000032423                AcpiExResolveOperands
 .text          0x0000000000032b7a      0x548 ./Source/acpica/executer/exutils.o
                0x0000000000032b7a                AcpiExEnterInterpreter
                0x0000000000032be4                AcpiExExitInterpreter
                0x0000000000032c4e                AcpiExTruncateFor32bitTable
                0x0000000000032cc0                AcpiExAcquireGlobalLock
                0x0000000000032d17                AcpiExReleaseGlobalLock
                0x0000000000032df0                AcpiExEisaIdToString
                0x0000000000032f13                AcpiExIntegerToString
                0x0000000000032f8f                AcpiExPciClsToString
                0x000000000003308e                AcpiIsValidSpaceId
 .text          0x00000000000330c2      0x198 ./Source/acpica/hardware/hwtimer.o
                0x00000000000330c2                AcpiGetTimerResolution
                0x00000000000330fb                AcpiGetTimer
                0x0000000000033169                AcpiGetTimerDuration
 .text          0x000000000003325a      0x289 ./Source/acpica/hardware/hwesleep.o
                0x000000000003325a                AcpiHwExecuteSleepMethod
                0x00000000000332c8                AcpiHwExtendedSleep
                0x0000000000033409                AcpiHwExtendedWakePrep
                0x0000000000033472                AcpiHwExtendedWake
 .text          0x00000000000334e3      0x33d ./Source/acpica/hardware/hwpci.o
                0x00000000000334e3                AcpiHwDerivePciId
 .text          0x0000000000033820      0x52e ./Source/acpica/hardware/hwgpe.o
                0x0000000000033820                AcpiHwGetGpeRegisterBit
                0x000000000003384b                AcpiHwLowSetGpe
                0x0000000000033984                AcpiHwClearGpe
                0x00000000000339cf                AcpiHwGetGpeStatus
                0x0000000000033b74                AcpiHwDisableGpeBlock
                0x0000000000033bc3                AcpiHwClearGpeBlock
                0x0000000000033c17                AcpiHwEnableRuntimeGpeBlock
                0x0000000000033cee                AcpiHwDisableAllGpes
                0x0000000000033d0e                AcpiHwEnableAllRuntimeGpes
                0x0000000000033d2e                AcpiHwEnableAllWakeupGpes
 .text          0x0000000000033d4e      0x1b5 ./Source/acpica/hardware/hwacpi.o
                0x0000000000033d4e                AcpiHwSetMode
                0x0000000000033ea5                AcpiHwGetMode
 .text          0x0000000000033f03      0xc46 ./Source/acpica/hardware/hwregs.o
                0x000000000003417c                AcpiHwValidateRegister
                0x00000000000342c3                AcpiHwRead
                0x00000000000344b2                AcpiHwWrite
                0x0000000000034659                AcpiHwClearAcpiStatus
                0x00000000000346c6                AcpiHwGetBitRegisterInfo
                0x0000000000034700                AcpiHwWritePm1Control
                0x0000000000034778                AcpiHwRegisterRead
                0x00000000000348b2                AcpiHwRegisterWrite
 .text          0x0000000000034b49      0x3ca ./Source/acpica/hardware/hwsleep.o
                0x0000000000034b49                AcpiHwLegacySleep
                0x0000000000034d6c                AcpiHwLegacyWakePrep
                0x0000000000034e53                AcpiHwLegacyWake
 .text          0x0000000000034f13      0x2b2 ./Source/acpica/hardware/hwvalid.o
                0x000000000003502d                AcpiHwReadPort
                0x0000000000035107                AcpiHwWritePort
 .text          0x00000000000351c5      0x32e ./Source/acpica/hardware/hwxfsleep.o
                0x0000000000035212                AcpiSetFirmwareWakingVector
                0x000000000003523c                AcpiEnterSleepStateS4bios
                0x000000000003535a                AcpiEnterSleepStatePrep
                0x0000000000035434                AcpiEnterSleepState
                0x00000000000354a7                AcpiLeaveSleepStatePrep
                0x00000000000354cd                AcpiLeaveSleepState
 .text          0x00000000000354f3      0x48d ./Source/acpica/hardware/hwxface.o
                0x00000000000354f3                AcpiReset
                0x0000000000035591                AcpiRead
                0x00000000000355b0                AcpiWrite
                0x00000000000355de                AcpiReadBitRegister
                0x000000000003565a                AcpiWriteBitRegister
                0x000000000003577f                AcpiGetSleepTypeData
 .text          0x0000000000035980      0x1f2 ./Source/acpica/namespace/nsxfobj.o
                0x0000000000035980                AcpiGetType
                0x0000000000035a13                AcpiGetParent
                0x0000000000035aa1                AcpiGetNextObject
 .text          0x0000000000035b72      0xa04 ./Source/acpica/namespace/nsprepkg.o
                0x0000000000035b72                AcpiNsCheckPackage
 .text          0x0000000000036576      0x7c7 ./Source/acpica/namespace/nsaccess.o
                0x0000000000036576                AcpiNsRootInitialize
                0x00000000000368d0                AcpiNsLookup
 .text          0x0000000000036d3d      0x5b5 ./Source/acpica/namespace/nsnames.o
                0x0000000000036d3d                AcpiNsGetExternalPathname
                0x0000000000036d5b                AcpiNsGetPathnameLength
                0x0000000000036db4                AcpiNsHandleToName
                0x0000000000036e27                AcpiNsHandleToPathname
                0x0000000000036eb5                AcpiNsBuildNormalizedPath
                0x0000000000037015                AcpiNsGetNormalizedPathname
                0x0000000000037098                AcpiNsBuildPrefixedPathname
 .text          0x00000000000372f2      0xb55 ./Source/acpica/namespace/nsdump.o
                0x00000000000372f2                AcpiNsPrintPathname
                0x00000000000372f8                AcpiNsDumpOneObject
                0x0000000000037bfc                AcpiNsDumpObjects
                0x0000000000037d8d                AcpiNsDumpObjectPaths
                0x0000000000037e1d                AcpiNsDumpEntry
 .text          0x0000000000037e47        0x0 ./Source/acpica/namespace/nsdumpdv.o
 .text          0x0000000000037e47      0x5f3 ./Source/acpica/namespace/nsconvert.o
                0x0000000000037e47                AcpiNsConvertToInteger
                0x0000000000037f61                AcpiNsConvertToString
                0x0000000000038067                AcpiNsConvertToBuffer
                0x00000000000381c4                AcpiNsConvertToUnicode
                0x000000000003828a                AcpiNsConvertToResource
                0x0000000000038341                AcpiNsConvertToReference
 .text          0x000000000003843a      0x88c ./Source/acpica/namespace/nsutils.o
                0x000000000003843a                AcpiNsPrintNodePathname
                0x00000000000384ba                AcpiNsGetType
                0x00000000000384f3                AcpiNsLocal
                0x000000000003853f                AcpiNsGetInternalNameLength
                0x0000000000038624                AcpiNsBuildInternalName
                0x00000000000387e5                AcpiNsInternalizeName
                0x0000000000038879                AcpiNsExternalizeName
                0x0000000000038acd                AcpiNsValidateHandle
                0x0000000000038afa                AcpiNsTerminate
                0x0000000000038b82                AcpiNsOpensScope
                0x0000000000038bc2                AcpiNsGetNodeUnlocked
                0x0000000000038c7c                AcpiNsGetNode
 .text          0x0000000000038cc6      0x564 ./Source/acpica/namespace/nseval.o
                0x0000000000038cc6                AcpiNsEvaluate
                0x000000000003905d                AcpiNsExecModuleCodeList
 .text          0x000000000003922a      0x3c1 ./Source/acpica/namespace/nspredef.o
                0x000000000003922a                AcpiNsCheckReturnValue
                0x0000000000039348                AcpiNsCheckObjectType
 .text          0x00000000000395eb      0x803 ./Source/acpica/namespace/nsxfname.o
                0x00000000000395eb                AcpiGetHandle
                0x00000000000396a3                AcpiGetName
                0x0000000000039783                AcpiGetObjectInfo
                0x0000000000039ba5                AcpiInstallMethod
 .text          0x0000000000039dee      0x483 ./Source/acpica/namespace/nsrepair.o
                0x0000000000039dee                AcpiNsSimpleRepair
                0x000000000003a0d4                AcpiNsRepairNullElement
                0x000000000003a18d                AcpiNsRemoveNullElements
                0x000000000003a223                AcpiNsWrapWithPackage
 .text          0x000000000003a271      0x256 ./Source/acpica/namespace/nswalk.o
                0x000000000003a271                AcpiNsGetNextNode
                0x000000000003a28a                AcpiNsGetNextNodeTyped
                0x000000000003a2dd                AcpiNsWalkNamespace
 .text          0x000000000003a4c7      0x94d ./Source/acpica/namespace/nsxfeval.o
                0x000000000003a4c7                AcpiEvaluateObjectTyped
                0x000000000003a63f                AcpiEvaluateObject
                0x000000000003a990                AcpiWalkNamespace
                0x000000000003ac21                AcpiGetDevices
                0x000000000003ac94                AcpiAttachData
                0x000000000003ad17                AcpiDetachData
                0x000000000003ad91                AcpiGetData
 .text          0x000000000003ae14      0x3d5 ./Source/acpica/namespace/nsarguments.o
                0x000000000003ae14                AcpiNsCheckArgumentTypes
                0x000000000003af1f                AcpiNsCheckAcpiCompliance
                0x000000000003b077                AcpiNsCheckArgumentCount
 .text          0x000000000003b1e9      0x6f9 ./Source/acpica/namespace/nsinit.o
                0x000000000003b1e9                AcpiNsInitializeObjects
                0x000000000003b24a                AcpiNsInitializeDevices
                0x000000000003b41a                AcpiNsInitOnePackage
 .text          0x000000000003b8e2      0x442 ./Source/acpica/namespace/nsalloc.o
                0x000000000003b8e2                AcpiNsCreateNode
                0x000000000003b91e                AcpiNsDeleteNode
                0x000000000003b9ae                AcpiNsRemoveNode
                0x000000000003ba17                AcpiNsInstallNode
                0x000000000003bac9                AcpiNsDeleteChildren
                0x000000000003bb3d                AcpiNsDeleteNamespaceSubtree
                0x000000000003bbf9                AcpiNsDeleteNamespaceByOwner
 .text          0x000000000003bd24      0x46c ./Source/acpica/namespace/nsobject.o
                0x000000000003bd24                AcpiNsAttachObject
                0x000000000003be95                AcpiNsDetachObject
                0x000000000003bf88                AcpiNsGetAttachedObject
                0x000000000003bff3                AcpiNsGetSecondaryObject
                0x000000000003c02b                AcpiNsAttachData
                0x000000000003c0ca                AcpiNsDetachData
                0x000000000003c143                AcpiNsGetAttachedData
 .text          0x000000000003c190      0x27d ./Source/acpica/namespace/nssearch.o
                0x000000000003c190                AcpiNsSearchOneScope
                0x000000000003c258                AcpiNsSearchAndEnter
 .text          0x000000000003c40d       0xd3 ./Source/acpica/namespace/nsload.o
                0x000000000003c40d                AcpiNsLoadTable
 .text          0x000000000003c4e0      0x358 ./Source/acpica/namespace/nsparse.o
                0x000000000003c4e0                AcpiNsExecuteTable
                0x000000000003c689                AcpiNsOneCompleteParse
                0x000000000003c819                AcpiNsParseTable
 .text          0x000000000003c838      0xa1f ./Source/acpica/namespace/nsrepair2.o
                0x000000000003c838                AcpiNsComplexRepairs
 .text          0x000000000003d257      0xbbd ./Source/acpica/parser/psargs.o
                0x000000000003d2d8                AcpiPsGetNextPackageEnd
                0x000000000003d2ff                AcpiPsGetNextNamestring
                0x000000000003d38d                AcpiPsGetNextNamepath
                0x000000000003d5d1                AcpiPsGetNextSimpleArg
                0x000000000003daf4                AcpiPsGetNextArg
 .text          0x000000000003de14      0x1f1 ./Source/acpica/parser/psscope.o
                0x000000000003de14                AcpiPsGetParentScope
                0x000000000003de22                AcpiPsHasCompletedScope
                0x000000000003de53                AcpiPsInitScope
                0x000000000003deb9                AcpiPsPushScope
                0x000000000003df3c                AcpiPsPopScope
                0x000000000003dfc4                AcpiPsCleanupScope
 .text          0x000000000003e005      0x1d0 ./Source/acpica/parser/psutils.o
                0x000000000003e005                AcpiPsCreateScopeOp
                0x000000000003e03a                AcpiPsInitOp
                0x000000000003e05c                AcpiPsAllocOp
                0x000000000003e129                AcpiPsFreeOp
                0x000000000003e16d                AcpiPsIsLeadingChar
                0x000000000003e190                AcpiPsGetName
                0x000000000003e1b3                AcpiPsSetName
 .text          0x000000000003e1d5       0xa0 ./Source/acpica/parser/psopinfo.o
                0x000000000003e1d5                AcpiPsGetOpcodeInfo
                0x000000000003e244                AcpiPsGetOpcodeName
                0x000000000003e258                AcpiPsGetArgumentCount
 .text          0x000000000003e275       0x9b ./Source/acpica/parser/pswalk.o
                0x000000000003e275                AcpiPsDeleteParseTree
 .text          0x000000000003e310      0x8f6 ./Source/acpica/parser/psloop.o
                0x000000000003e534                AcpiPsParseLoop
 .text          0x000000000003ec06      0x21e ./Source/acpica/parser/pstree.o
                0x000000000003ec06                AcpiPsGetArg
                0x000000000003ec81                AcpiPsAppendArg
                0x000000000003ed5a                AcpiPsGetDepthNext
 .text          0x000000000003ee24        0x0 ./Source/acpica/parser/psopcode.o
 .text          0x000000000003ee24      0xb2a ./Source/acpica/parser/psobject.o
                0x000000000003ef6d                AcpiPsBuildNamedOp
                0x000000000003f12f                AcpiPsCreateOp
                0x000000000003f395                AcpiPsCompleteOp
                0x000000000003f7bf                AcpiPsCompleteFinalOp
 .text          0x000000000003f94e      0x943 ./Source/acpica/parser/psparse.o
                0x000000000003f94e                AcpiPsGetOpcodeSize
                0x000000000003f968                AcpiPsPeekOpcode
                0x000000000003f9ad                AcpiPsCompleteThisOp
                0x000000000003fcc6                AcpiPsNextParseState
                0x000000000003fe1e                AcpiPsParseAml
 .text          0x0000000000040291      0x4ac ./Source/acpica/parser/psxface.o
                0x0000000000040291                AcpiDebugTrace
                0x00000000000402eb                AcpiPsExecuteMethod
                0x000000000004055e                AcpiPsExecuteTable
 .text          0x000000000004073d      0x638 ./Source/acpica/resources/rsutils.o
                0x000000000004073d                AcpiRsDecodeBitmask
                0x0000000000040793                AcpiRsEncodeBitmask
                0x00000000000407e6                AcpiRsMoveData
                0x00000000000408b9                AcpiRsSetResourceLength
                0x0000000000040913                AcpiRsSetResourceHeader
                0x0000000000040991                AcpiRsGetResourceSource
                0x0000000000040a73                AcpiRsSetResourceSource
                0x0000000000040add                AcpiRsGetPrtMethodData
                0x0000000000040b30                AcpiRsGetCrsMethodData
                0x0000000000040b83                AcpiRsGetPrsMethodData
                0x0000000000040bd6                AcpiRsGetAeiMethodData
                0x0000000000040c29                AcpiRsGetMethodData
                0x0000000000040c7a                AcpiRsSetSrsMethodData
 .text          0x0000000000040d75        0x0 ./Source/acpica/resources/rsio.o
 .text          0x0000000000040d75        0x0 ./Source/acpica/resources/rsirq.o
 .text          0x0000000000040d75        0x0 ./Source/acpica/resources/rsinfo.o
 .text          0x0000000000040d75      0xe17 ./Source/acpica/resources/rsmisc.o
                0x0000000000040d75                AcpiRsConvertAmlToResource
                0x0000000000041542                AcpiRsConvertResourceToAml
 .text          0x0000000000041b8c        0x0 ./Source/acpica/resources/rsserial.o
 .text          0x0000000000041b8c        0x0 ./Source/acpica/resources/rsmemory.o
 .text          0x0000000000041b8c      0x2a5 ./Source/acpica/resources/rslist.o
                0x0000000000041b8c                AcpiRsConvertAmlToResources
                0x0000000000041ca3                AcpiRsConvertResourcesToAml
 .text          0x0000000000041e31      0x105 ./Source/acpica/resources/rsaddr.o
                0x0000000000041e31                AcpiRsGetAddressCommon
                0x0000000000041ec4                AcpiRsSetAddressCommon
 .text          0x0000000000041f36      0x81a ./Source/acpica/resources/rscalc.o
                0x0000000000041fb7                AcpiRsGetAmlLength
                0x0000000000042271                AcpiRsGetListLength
                0x0000000000042622                AcpiRsGetPciRoutingTableLength
 .text          0x0000000000042750      0x69e ./Source/acpica/resources/rsxface.o
                0x00000000000427be                AcpiGetIrqRoutingTable
                0x0000000000042801                AcpiGetCurrentResources
                0x0000000000042844                AcpiGetPossibleResources
                0x0000000000042887                AcpiSetCurrentResources
                0x00000000000428ea                AcpiGetEventResources
                0x000000000004292d                AcpiResourceToAddress64
                0x0000000000042b51                AcpiGetVendorResource
                0x0000000000042c7b                AcpiWalkResourceBuffer
                0x0000000000042d39                AcpiWalkResources
 .text          0x0000000000042dee      0x560 ./Source/acpica/resources/rscreate.o
                0x0000000000042dee                AcpiBufferToResource
                0x0000000000042ea9                AcpiRsCreateResourceList
                0x0000000000042f45                AcpiRsCreatePciRoutingTable
                0x00000000000432c5                AcpiRsCreateAmlResources
 .text          0x000000000004334e        0x0 ./Source/acpica/resources/rsdumpinfo.o
 .text          0x000000000004334e      0x6df ./Source/acpica/resources/rsdump.o
                0x000000000004334e                AcpiRsDumpResourceList
                0x000000000004335e                AcpiRsDumpIrqList
 .text          0x0000000000043a2d      0x40a ./Source/acpica/tables/tbinstal.o
                0x0000000000043a2d                AcpiTbInstallTableWithOverride
                0x0000000000043af4                AcpiTbInstallStandardTable
                0x0000000000043c83                AcpiTbOverrideTable
                0x0000000000043de8                AcpiTbUninstallTable
 .text          0x0000000000043e37      0x5b9 ./Source/acpica/tables/tbxface.o
                0x0000000000043e37                AcpiAllocateRootTable
                0x0000000000043e53                AcpiInitializeTables
                0x0000000000043ef6                AcpiReallocateRootTable
                0x000000000004403b                AcpiGetTableHeader
                0x0000000000044193                AcpiGetTable
                0x000000000004424b                AcpiPutTable
                0x00000000000442c3                AcpiGetTableByIndex
                0x0000000000044338                AcpiInstallTableHandler
                0x000000000004439a                AcpiRemoveTableHandler
 .text          0x00000000000443f0      0xc7d ./Source/acpica/tables/tbdata.o
                0x0000000000044493                AcpiTbInitTableDescriptor
                0x00000000000444df                AcpiTbAcquireTable
                0x0000000000044562                AcpiTbReleaseTable
                0x0000000000044591                AcpiTbAcquireTempTable
                0x0000000000044638                AcpiTbReleaseTempTable
                0x000000000004464f                AcpiTbValidateTable
                0x000000000004469f                AcpiTbInvalidateTable
                0x00000000000446e3                AcpiTbValidateTempTable
                0x00000000000447b5                AcpiTbVerifyTempTable
                0x000000000004497e                AcpiTbResizeRootTableList
                0x0000000000044afb                AcpiTbGetNextTableDescriptor
                0x0000000000044b6e                AcpiTbTerminate
                0x0000000000044c06                AcpiTbDeleteNamespaceByOwner
                0x0000000000044cb4                AcpiTbAllocateOwnerId
                0x0000000000044d11                AcpiTbReleaseOwnerId
                0x0000000000044d72                AcpiTbGetOwnerId
                0x0000000000044dcd                AcpiTbIsTableLoaded
                0x0000000000044e20                AcpiTbSetTableLoadedFlag
                0x0000000000044ecb                AcpiTbLoadTable
                0x0000000000044f4e                AcpiTbInstallAndLoadTable
                0x0000000000044fb0                AcpiTbUnloadTable
                0x0000000000045041                AcpiTbNotifyTable
 .text          0x000000000004506d      0x909 ./Source/acpica/tables/tbfadt.o
                0x00000000000451d8                AcpiTbParseFadt
                0x00000000000452f4                AcpiTbCreateLocalFadt
 .text          0x0000000000045976      0x2c8 ./Source/acpica/tables/tbxfroot.o
                0x0000000000045976                AcpiTbGetRsdpLength
                0x00000000000459b7                AcpiTbValidateRsdp
                0x0000000000045a26                AcpiFindRootPointer
                0x0000000000045bf6                AcpiTbScanMemoryForRsdp
 .text          0x0000000000045c3e      0x2bb ./Source/acpica/tables/tbprint.o
                0x0000000000045ce7                AcpiTbPrintTableHeader
                0x0000000000045e40                AcpiTbVerifyChecksum
                0x0000000000045ec5                AcpiTbChecksum
 .text          0x0000000000045ef9      0x5a4 ./Source/acpica/tables/tbutils.o
                0x0000000000045ef9                AcpiTbInitializeFacs
                0x0000000000045fa0                AcpiTbCheckDsdtHeader
                0x0000000000046029                AcpiTbCopyDsdt
                0x0000000000046168                AcpiTbParseRootTable
                0x00000000000463ad                AcpiTbGetTable
                0x0000000000046432                AcpiTbPutTable
 .text          0x000000000004649d      0x483 ./Source/acpica/tables/tbxfload.o
                0x000000000004649d                AcpiLoadTables
                0x0000000000046522                AcpiTbLoadNamespace
                0x000000000004679f                AcpiInstallTable
                0x00000000000467de                AcpiLoadTable
                0x000000000004681d                AcpiUnloadParentTable
 .text          0x0000000000046920      0x245 ./Source/acpica/tables/tbfind.o
                0x0000000000046920                AcpiTbFindTable
 .text          0x0000000000046b65      0x235 ./Source/acpica/utilities/utxferror.o
                0x0000000000046b65                AcpiError
                0x0000000000046bae                AcpiException
                0x0000000000046c1e                AcpiWarning
                0x0000000000046c67                AcpiInfo
                0x0000000000046c98                AcpiBiosError
                0x0000000000046ce1                AcpiBiosException
                0x0000000000046d51                AcpiBiosWarning
 .text          0x0000000000046d9a      0x611 ./Source/acpica/utilities/utobject.o
                0x0000000000046d9a                AcpiUtCreateInternalObjectDbg
                0x0000000000046e3c                AcpiUtCreatePackageObject
                0x0000000000046eb2                AcpiUtCreateIntegerObject
                0x0000000000046efe                AcpiUtCreateBufferObject
                0x0000000000046fa6                AcpiUtCreateStringObject
                0x0000000000047033                AcpiUtValidInternalObject
                0x0000000000047061                AcpiUtAllocateObjectDescDbg
                0x00000000000470aa                AcpiUtDeleteObjectDesc
                0x0000000000047360                AcpiUtGetObjectSize
 .text          0x00000000000473ab      0x327 ./Source/acpica/utilities/uteval.o
                0x00000000000473ab                AcpiUtEvaluateObject
                0x0000000000047589                AcpiUtEvaluateNumericObject
                0x00000000000475d6                AcpiUtExecute_STA
                0x000000000004763a                AcpiUtExecutePowerMethods
 .text          0x00000000000476d2      0x2ba ./Source/acpica/utilities/utaddress.o
                0x00000000000476d2                AcpiUtAddAddressRange
                0x0000000000047756                AcpiUtRemoveAddressRange
                0x00000000000477dd                AcpiUtCheckAddressRange
                0x0000000000047931                AcpiUtDeleteAddressLists
 .text          0x000000000004798c      0x354 ./Source/acpica/utilities/utinit.o
                0x0000000000047a14                AcpiUtInitGlobals
                0x0000000000047c81                AcpiUtSubsystemShutdown
 .text          0x0000000000047ce0      0x717 ./Source/acpica/utilities/utclib.o
                0x0000000000047ce0                memcmp
                0x0000000000047d3e                memmove
                0x0000000000047db7                memcpy
                0x0000000000047ded                memset
                0x0000000000047e18                strlen
                0x0000000000047e3e                strpbrk
                0x0000000000047e86                strtok
                0x0000000000047f14                strcpy
                0x0000000000047f4a                strncpy
                0x0000000000047fa2                strcmp
                0x0000000000047fea                strchr
                0x0000000000048016                strncmp
                0x0000000000048078                strcat
                0x00000000000480bd                strncat
                0x000000000004811e                strstr
                0x0000000000048172                strtoul
                0x00000000000483a9                toupper
                0x00000000000483d0                tolower
 .text          0x00000000000483f7      0x4ff ./Source/acpica/utilities/utosi.o
                0x00000000000483f7                AcpiUtInitializeInterfaces
                0x000000000004847e                AcpiUtInterfaceTerminate
                0x0000000000048553                AcpiUtInstallInterface
                0x00000000000485ee                AcpiUtRemoveInterface
                0x00000000000486c7                AcpiUtUpdateInterfaces
                0x000000000004875c                AcpiUtGetInterface
                0x000000000004879f                AcpiUtOsiImplementation
 .text          0x00000000000488f6      0x62c ./Source/acpica/utilities/utxface.o
                0x00000000000488f6                AcpiTerminate
                0x0000000000048913                AcpiSubsystemStatus
                0x0000000000048930                AcpiGetSystemInfo
                0x00000000000489e6                AcpiGetStatistics
                0x0000000000048a3c                AcpiInstallInitializationHandler
                0x0000000000048a6b                AcpiPurgeCachedObjects
                0x0000000000048abc                AcpiInstallInterface
                0x0000000000048b7b                AcpiRemoveInterface
                0x0000000000048beb                AcpiInstallInterfaceHandler
                0x0000000000048c4b                AcpiUpdateInterfaces
                0x0000000000048ca4                AcpiCheckAddressRange
                0x0000000000048d00                AcpiDecodePldBuffer
 .text          0x0000000000048f22      0xadd ./Source/acpica/utilities/utcopy.o
                0x0000000000049264                AcpiUtCopyIobjectToEobject
                0x0000000000049570                AcpiUtCopyEobjectToIobject
                0x0000000000049962                AcpiUtCopyIobjectToIobject
 .text          0x00000000000499ff      0x502 ./Source/acpica/utilities/utids.o
                0x00000000000499ff                AcpiUtExecute_HID
                0x0000000000049ae3                AcpiUtExecute_UID
                0x0000000000049bc7                AcpiUtExecute_CID
                0x0000000000049dcb                AcpiUtExecute_CLS
 .text          0x0000000000049f01      0x2a2 ./Source/acpica/utilities/utbuffer.o
                0x0000000000049f01                AcpiUtDumpBuffer
                0x000000000004a16b                AcpiUtDebugDumpBuffer
 .text          0x000000000004a1a3        0x0 ./Source/acpica/utilities/utglobal.o
 .text          0x000000000004a1a3      0x23a ./Source/acpica/utilities/utxfinit.o
                0x000000000004a1a3                AcpiInitializeSubsystem
                0x000000000004a2a1                AcpiEnableSubsystem
                0x000000000004a36c                AcpiInitializeObjects
 .text          0x000000000004a3dd      0x1cf ./Source/acpica/utilities/utstate.o
                0x000000000004a3dd                AcpiUtPushGenericState
                0x000000000004a3f5                AcpiUtPopGenericState
                0x000000000004a418                AcpiUtCreateGenericState
                0x000000000004a444                AcpiUtCreateThreadState
                0x000000000004a4ca                AcpiUtCreateUpdateState
                0x000000000004a50c                AcpiUtCreatePkgState
                0x000000000004a558                AcpiUtCreateControlState
                0x000000000004a588                AcpiUtDeleteGenericState
 .text          0x000000000004a5ac      0x289 ./Source/acpica/utilities/uterror.o
                0x000000000004a5ac                AcpiUtPredefinedWarning
                0x000000000004a60b                AcpiUtPredefinedInfo
                0x000000000004a66a                AcpiUtPredefinedBiosError
                0x000000000004a6c9                AcpiUtPrefixedNamespaceError
                0x000000000004a79a                AcpiUtMethodError
 .text          0x000000000004a835      0x278 ./Source/acpica/utilities/utstring.o
                0x000000000004a835                AcpiUtPrintString
                0x000000000004aa0a                AcpiUtRepairName
 .text          0x000000000004aaad      0x29d ./Source/acpica/utilities/utdecode.o
                0x000000000004aaad                AcpiUtGetRegionName
                0x000000000004aafc                AcpiUtGetEventName
                0x000000000004ab18                AcpiUtGetTypeName
                0x000000000004ab34                AcpiUtGetObjectTypeName
                0x000000000004ab76                AcpiUtGetNodeName
                0x000000000004abd2                AcpiUtGetDescriptorName
                0x000000000004ac07                AcpiUtGetReferenceName
                0x000000000004ac60                AcpiUtGetMutexName
                0x000000000004ac7c                AcpiUtGetNotifyName
                0x000000000004ad17                AcpiUtGetArgumentTypeName
                0x000000000004ad33                AcpiUtValidObjectType
 .text          0x000000000004ad4a      0x84a ./Source/acpica/utilities/utdelete.o
                0x000000000004b0cd                AcpiUtDeleteInternalObjectList
                0x000000000004b284                AcpiUtUpdateObjectReference
                0x000000000004b524                AcpiUtAddReference
                0x000000000004b552                AcpiUtRemoveReference
 .text          0x000000000004b594      0x24a ./Source/acpica/utilities/utownerid.o
                0x000000000004b594                AcpiUtAllocateOwnerId
                0x000000000004b6fe                AcpiUtReleaseOwnerId
 .text          0x000000000004b7de      0x103 ./Source/acpica/utilities/utascii.o
                0x000000000004b7de                AcpiUtValidNameseg
                0x000000000004b826                AcpiUtValidNameChar
                0x000000000004b871                AcpiUtCheckAndRepairAscii
 .text          0x000000000004b8e1      0x127 ./Source/acpica/utilities/utexcep.o
                0x000000000004b8e1                AcpiFormatException
                0x000000000004b926                AcpiUtValidateException
 .text          0x000000000004ba08       0xfa ./Source/acpica/utilities/utpredef.o
                0x000000000004ba08                AcpiUtGetNextPredefinedMethod
                0x000000000004ba34                AcpiUtMatchPredefinedMethod
                0x000000000004ba86                AcpiUtGetExpectedReturnTypes
 .text          0x000000000004bb02        0x0 ./Source/acpica/utilities/utdebug.o
 .text          0x000000000004bb02       0xf5 ./Source/acpica/utilities/uthex.o
                0x000000000004bb02                AcpiUtHexToAsciiChar
                0x000000000004bb4f                AcpiUtAsciiToHexByte
                0x000000000004bbd0                AcpiUtAsciiCharToHex
 .text          0x000000000004bbf7        0x0 ./Source/acpica/utilities/uttrack.o
 .text          0x000000000004bbf7      0x3c9 ./Source/acpica/utilities/utresrc.o
                0x000000000004bbf7                AcpiUtWalkAmlResources
                0x000000000004bd3a                AcpiUtValidateResource
                0x000000000004bedf                AcpiUtGetResourceType
                0x000000000004beff                AcpiUtGetResourceLength
                0x000000000004bf34                AcpiUtGetResourceHeaderLength
                0x000000000004bf4f                AcpiUtGetDescriptorLength
                0x000000000004bf76                AcpiUtGetResourceEndTag
 .text          0x000000000004bfc0      0x1af ./Source/acpica/utilities/utlock.o
                0x000000000004bfc0                AcpiUtCreateRwLock
                0x000000000004c007                AcpiUtDeleteRwLock
                0x000000000004c050                AcpiUtAcquireReadLock
                0x000000000004c0c5                AcpiUtReleaseReadLock
                0x000000000004c131                AcpiUtAcquireWriteLock
                0x000000000004c155                AcpiUtReleaseWriteLock
 .text          0x000000000004c16f      0x44e ./Source/acpica/utilities/utstrsuppt.o
                0x000000000004c16f                AcpiUtConvertOctalString
                0x000000000004c1ee                AcpiUtConvertDecimalString
                0x000000000004c276                AcpiUtConvertHexString
                0x000000000004c2f8                AcpiUtRemoveLeadingZeros
                0x000000000004c320                AcpiUtRemoveWhitespace
                0x000000000004c358                AcpiUtDetectHexPrefix
                0x000000000004c38c                AcpiUtRemoveHexPrefix
                0x000000000004c3cd                AcpiUtDetectOctalPrefix
 .text          0x000000000004c5bd      0x28d ./Source/acpica/utilities/utalloc.o
                0x000000000004c5bd                AcpiOsAllocateZeroed
                0x000000000004c5f2                AcpiUtCreateCaches
                0x000000000004c6b6                AcpiUtDeleteCaches
                0x000000000004c74a                AcpiUtValidateBuffer
                0x000000000004c796                AcpiUtInitializeBuffer
 .text          0x000000000004c84a      0x126 ./Source/acpica/utilities/utxfmutex.o
                0x000000000004c8df                AcpiAcquireMutex
                0x000000000004c92e                AcpiReleaseMutex
 .text          0x000000000004c970      0xa25 ./Source/acpica/utilities/utprint.o
                0x000000000004ca9f                AcpiUtScanNumber
                0x000000000004cb25                AcpiUtPrintNumber
                0x000000000004ce05                vsnprintf
                0x000000000004d344                snprintf
                0x000000000004d36d                sprintf
 .text          0x000000000004d395      0x2e3 ./Source/acpica/utilities/utcache.o
                0x000000000004d395                AcpiOsCreateCache
                0x000000000004d41f                AcpiOsPurgeCache
                0x000000000004d4a2                AcpiOsDeleteCache
                0x000000000004d4d9                AcpiOsReleaseObject
                0x000000000004d591                AcpiOsAcquireObject
 .text          0x000000000004d678        0x0 ./Source/acpica/utilities/utuuid.o
 .text          0x000000000004d678      0x3cb ./Source/acpica/utilities/utmath.o
                0x000000000004d678                AcpiUtShortMultiply
                0x000000000004d6c3                AcpiUtShortShiftLeft
                0x000000000004d70c                AcpiUtShortShiftRight
                0x000000000004d755                AcpiUtShortDivide
                0x000000000004d7f7                AcpiUtDivide
 .text          0x000000000004da43      0x367 ./Source/acpica/utilities/utmutex.o
                0x000000000004da43                AcpiUtMutexInitialize
                0x000000000004db16                AcpiUtMutexTerminate
                0x000000000004dc47                AcpiUtAcquireMutex
                0x000000000004dd00                AcpiUtReleaseMutex
 .text          0x000000000004ddaa      0x23c ./Source/acpica/utilities/utstrtoul64.o
                0x000000000004ddaa                AcpiUtStrtoul64
                0x000000000004dec0                AcpiUtImplicitStrtoul64
                0x000000000004df3c                AcpiUtExplicitStrtoul64
 .text          0x000000000004dfe6        0x0 ./Source/acpica/utilities/utresdecode.o
 .text          0x000000000004dfe6      0x1f6 ./Source/acpica/utilities/utnonansi.o
                0x000000000004dfe6                AcpiUtStrlwr
                0x000000000004e029                AcpiUtStrupr
                0x000000000004e06c                AcpiUtStricmp
                0x000000000004e0c0                AcpiUtSafeStrcpy
                0x000000000004e0f8                AcpiUtSafeStrcat
                0x000000000004e146                AcpiUtSafeStrncat
                0x000000000004e1b1                AcpiUtSafeStrncpy
 .text          0x000000000004e1dc      0x2d6 ./Source/acpica/utilities/utmisc.o
                0x000000000004e1dc                AcpiUtIsPciRootBridge
                0x000000000004e21e                AcpiUtDwordByteSwap
                0x000000000004e24b                AcpiUtSetIntegerWidth
                0x000000000004e28c                AcpiUtCreateUpdateStateAndPush
                0x000000000004e2e1                AcpiUtWalkPackageTree
 *fill*         0x000000000004e4b2        0xe 
 .text          0x000000000004e4c0       0x2b ./Source/core/NSOCorePaging.o
                0x000000000004e4c0                kernel_loadPageDirectory
                0x000000000004e4d6                kernel_enablePaging
                0x000000000004e4e4                kernel_updatePaging
 *fill*         0x000000000004e4eb        0x5 
 .text          0x000000000004e4f0      0x8b1 ./Source/core/NSOExceptions.o
                0x000000000004e4f0                kernel_isr0
                0x000000000004e515                kernel_isr8
                0x000000000004e538                kernel_isr13
                0x000000000004e55b                kernel_isr14
                0x000000000004e580                kernel_isrstub_start
                0x000000000004ed00                kernel_isrstub_end
 *fill*         0x000000000004eda1        0xf 
 .text          0x000000000004edb0       0x3f ./Source/utils/NSOLocks.o
                0x000000000004edb0                kernel_acquireSpinlock
                0x000000000004edc1                kernel_releaseLock
                0x000000000004edd0                kernel_acquireMutex

.iplt           0x000000000004edef        0x0
 .iplt          0x000000000004edef        0x0 ./Source/core/NSOKernel.o

.rodata         0x000000000004ee00    0x10a27
 .rodata        0x000000000004ee00       0x5d ./Source/core/NSOKernel.o
 *fill*         0x000000000004ee5d        0x3 
 .rodata        0x000000000004ee60       0x23 ./Source/core/NSOBiosMaps.o
 *fill*         0x000000000004ee83        0x1 
 .rodata        0x000000000004ee84       0x4c ./Source/core/NSOAllocator.o
 .rodata        0x000000000004eed0       0x54 ./Source/core/NSOPaging.o
 .rodata        0x000000000004ef24       0x8f ./Source/core/NSOInterruptController.o
 *fill*         0x000000000004efb3        0x1 
 .rodata        0x000000000004efb4       0x5a ./Source/core/NSOPCI.o
 *fill*         0x000000000004f00e        0x2 
 .rodata        0x000000000004f010       0xbb ./Source/core/NSOCExceptions.o
 *fill*         0x000000000004f0cb        0x1 
 .rodata        0x000000000004f0cc       0x21 ./Source/devices/NSOAPIC.o
 .rodata        0x000000000004f0ed       0x26 ./Source/devices/NSOHPET.o
 *fill*         0x000000000004f113        0x1 
 .rodata        0x000000000004f114       0x2a ./Source/devices/NSOPIT.o
 *fill*         0x000000000004f13e        0x2 
 .rodata        0x000000000004f140      0x163 ./Source/utils/NSOBochs.o
 .rodata        0x000000000004f2a3        0xc ./Source/utils/NSOCoreUtils.o
 .rodata        0x000000000004f2af       0x66 ./Source/acpica/NSOACPIOSL.o
 *fill*         0x000000000004f315        0x3 
 .rodata        0x000000000004f318      0x8f3 ./Source/acpica/debugger/dbcmds.o
 *fill*         0x000000000004fc0b        0x1 
 .rodata        0x000000000004fc0c      0x4d2 ./Source/acpica/debugger/dbtest.o
 *fill*         0x00000000000500de        0x2 
 .rodata        0x00000000000500e0      0x175 ./Source/acpica/debugger/dbutils.o
 *fill*         0x0000000000050255        0x3 
 .rodata        0x0000000000050258      0x471 ./Source/acpica/debugger/dbexec.o
 *fill*         0x00000000000506c9        0x3 
 .rodata        0x00000000000506cc      0x17c ./Source/acpica/debugger/dbmethod.o
 .rodata        0x0000000000050848      0x80f ./Source/acpica/debugger/dbdisply.o
 *fill*         0x0000000000051057        0x1 
 .rodata        0x0000000000051058      0x5cc ./Source/acpica/debugger/dbstats.o
 .rodata        0x0000000000051624      0x329 ./Source/acpica/debugger/dbobject.o
 *fill*         0x000000000005194d        0x3 
 .rodata        0x0000000000051950        0x9 ./Source/acpica/debugger/dbfileio.o
 *fill*         0x0000000000051959        0x3 
 .rodata        0x000000000005195c       0x2f ./Source/acpica/debugger/dbhistry.o
 *fill*         0x000000000005198b       0x15 
 .rodata        0x00000000000519a0     0x17e3 ./Source/acpica/debugger/dbinput.o
 *fill*         0x0000000000053183        0x1 
 .rodata        0x0000000000053184      0x1a0 ./Source/acpica/debugger/dbxface.o
 .rodata        0x0000000000053324      0x1c5 ./Source/acpica/debugger/dbconvert.o
 *fill*         0x00000000000534e9        0x3 
 .rodata        0x00000000000534ec      0x5ca ./Source/acpica/debugger/dbnames.o
 *fill*         0x0000000000053ab6        0x2 
 .rodata        0x0000000000053ab8      0x15c ./Source/acpica/dispatcher/dswexec.o
 .rodata        0x0000000000053c14       0xf6 ./Source/acpica/dispatcher/dsmethod.o
 *fill*         0x0000000000053d0a        0x2 
 .rodata        0x0000000000053d0c        0x8 ./Source/acpica/dispatcher/dsdebug.o
 .rodata        0x0000000000053d14      0x148 ./Source/acpica/dispatcher/dspkginit.o
 .rodata        0x0000000000053e5c      0x168 ./Source/acpica/dispatcher/dswload2.o
 .rodata        0x0000000000053fc4       0xc4 ./Source/acpica/dispatcher/dswload.o
 .rodata        0x0000000000054088      0x223 ./Source/acpica/dispatcher/dswstate.o
 *fill*         0x00000000000542ab        0x1 
 .rodata        0x00000000000542ac      0x1cf ./Source/acpica/dispatcher/dsopcode.o
 *fill*         0x000000000005447b        0x1 
 .rodata        0x000000000005447c      0x164 ./Source/acpica/dispatcher/dsobject.o
 .rodata        0x00000000000545e0       0x5a ./Source/acpica/dispatcher/dsutils.o
 *fill*         0x000000000005463a        0x2 
 .rodata        0x000000000005463c      0x108 ./Source/acpica/dispatcher/dscontrol.o
 .rodata        0x0000000000054744       0x38 ./Source/acpica/dispatcher/dswscope.o
 .rodata        0x000000000005477c       0xca ./Source/acpica/dispatcher/dsmthdat.o
 *fill*         0x0000000000054846        0x2 
 .rodata        0x0000000000054848       0x70 ./Source/acpica/dispatcher/dsargs.o
 .rodata        0x00000000000548b8       0xfb ./Source/acpica/dispatcher/dsfield.o
 *fill*         0x00000000000549b3        0x1 
 .rodata        0x00000000000549b4       0x4a ./Source/acpica/dispatcher/dsinit.o
 *fill*         0x00000000000549fe        0x2 
 .rodata        0x0000000000054a00       0x1b ./Source/acpica/events/evxfgpe.o
 *fill*         0x0000000000054a1b        0x1 
 .rodata        0x0000000000054a1c       0x8e ./Source/acpica/events/evxfevnt.o
 *fill*         0x0000000000054aaa        0x2 
 .rodata        0x0000000000054aac        0x9 ./Source/acpica/events/evxfregn.o
 *fill*         0x0000000000054ab5        0x3 
 .rodata        0x0000000000054ab8       0x42 ./Source/acpica/events/evgpeutil.o
 *fill*         0x0000000000054afa        0x2 
 .rodata        0x0000000000054afc        0x6 ./Source/acpica/events/evsci.o
 *fill*         0x0000000000054b02        0x2 
 .rodata        0x0000000000054b04        0xa ./Source/acpica/events/evhandler.o
 *fill*         0x0000000000054b0e        0x2 
 .rodata        0x0000000000054b10       0x55 ./Source/acpica/events/evrgnini.o
 *fill*         0x0000000000054b65        0x3 
 .rodata        0x0000000000054b68       0x77 ./Source/acpica/events/evxface.o
 *fill*         0x0000000000054bdf        0x1 
 .rodata        0x0000000000054be0       0x81 ./Source/acpica/events/evmisc.o
 *fill*         0x0000000000054c61        0x3 
 .rodata        0x0000000000054c64       0xcb ./Source/acpica/events/evgpe.o
 *fill*         0x0000000000054d2f        0x1 
 .rodata        0x0000000000054d30       0xf2 ./Source/acpica/events/evevent.o
 *fill*         0x0000000000054e22        0x2 
 .rodata        0x0000000000054e24      0x133 ./Source/acpica/events/evregion.o
 *fill*         0x0000000000054f57        0x1 
 .rodata        0x0000000000054f58       0xaa ./Source/acpica/events/evgpeblk.o
 *fill*         0x0000000000055002        0x2 
 .rodata        0x0000000000055004       0xa6 ./Source/acpica/events/evglock.o
 *fill*         0x00000000000550aa        0x2 
 .rodata        0x00000000000550ac      0x107 ./Source/acpica/events/evgpeinit.o
 *fill*         0x00000000000551b3        0x1 
 .rodata        0x00000000000551b4       0xef ./Source/acpica/executer/exmisc.o
 *fill*         0x00000000000552a3        0x1 
 .rodata        0x00000000000552a4      0x168 ./Source/acpica/executer/exresnte.o
 .rodata        0x000000000005540c       0x79 ./Source/acpica/executer/exnames.o
 *fill*         0x0000000000055485        0x3 
 .rodata        0x0000000000055488      0x21c ./Source/acpica/executer/exoparg1.o
 .rodata        0x00000000000556a4       0x56 ./Source/acpica/executer/exregion.o
 *fill*         0x00000000000556fa        0x2 
 .rodata        0x00000000000556fc        0x8 ./Source/acpica/executer/extrace.o
 .rodata        0x0000000000055704       0x87 ./Source/acpica/executer/exoparg6.o
 *fill*         0x000000000005578b        0x1 
 .rodata        0x000000000005578c       0x36 ./Source/acpica/executer/exoparg3.o
 *fill*         0x00000000000557c2        0x2 
 .rodata        0x00000000000557c4       0xb9 ./Source/acpica/executer/exserial.o
 *fill*         0x000000000005587d        0x3 
 .rodata        0x0000000000055880       0x2e ./Source/acpica/executer/exconcat.o
 *fill*         0x00000000000558ae        0x2 
 .rodata        0x00000000000558b0      0x1f2 ./Source/acpica/executer/exfldio.o
 *fill*         0x0000000000055aa2        0x2 
 .rodata        0x0000000000055aa4      0x15e ./Source/acpica/executer/exmutex.o
 *fill*         0x0000000000055c02        0x2 
 .rodata        0x0000000000055c04      0x140 ./Source/acpica/executer/exoparg2.o
 *fill*         0x0000000000055d44       0x1c 
 .rodata        0x0000000000055d60      0xb42 ./Source/acpica/executer/exdump.o
 *fill*         0x00000000000568a2        0x2 
 .rodata        0x00000000000568a4      0x1f0 ./Source/acpica/executer/exstore.o
 .rodata        0x0000000000056a94       0xe4 ./Source/acpica/executer/exconvrt.o
 .rodata        0x0000000000056b78        0x9 ./Source/acpica/executer/exstorob.o
 *fill*         0x0000000000056b81        0x3 
 .rodata        0x0000000000056b84       0x36 ./Source/acpica/executer/excreate.o
 *fill*         0x0000000000056bba        0x2 
 .rodata        0x0000000000056bbc       0x44 ./Source/acpica/executer/exfield.o
                0x0000000000056bc4                AcpiProtocolLengths
 .rodata        0x0000000000056c00       0x98 ./Source/acpica/executer/exprep.o
 .rodata        0x0000000000056c98      0x21c ./Source/acpica/executer/exdebug.o
 .rodata        0x0000000000056eb4       0xf1 ./Source/acpica/executer/exstoren.o
 *fill*         0x0000000000056fa5        0x3 
 .rodata        0x0000000000056fa8      0x1ac ./Source/acpica/executer/exresolv.o
 .rodata        0x0000000000057154       0x75 ./Source/acpica/executer/exconfig.o
 *fill*         0x00000000000571c9        0x3 
 .rodata        0x00000000000571cc       0x2d ./Source/acpica/executer/exsystem.o
 *fill*         0x00000000000571f9        0x3 
 .rodata        0x00000000000571fc      0x2a8 ./Source/acpica/executer/exresop.o
 .rodata        0x00000000000574a4      0x125 ./Source/acpica/executer/exutils.o
 *fill*         0x00000000000575c9        0x3 
 .rodata        0x00000000000575cc        0x8 ./Source/acpica/hardware/hwtimer.o
 .rodata        0x00000000000575d4       0x33 ./Source/acpica/hardware/hwesleep.o
 *fill*         0x0000000000057607        0x1 
 .rodata        0x0000000000057608        0xb ./Source/acpica/hardware/hwpci.o
 *fill*         0x0000000000057613        0x1 
 .rodata        0x0000000000057614       0x1d ./Source/acpica/hardware/hwgpe.o
 *fill*         0x0000000000057631        0x3 
 .rodata        0x0000000000057634       0xbf ./Source/acpica/hardware/hwacpi.o
 *fill*         0x00000000000576f3        0x1 
 .rodata        0x00000000000576f4      0x108 ./Source/acpica/hardware/hwregs.o
 .rodata        0x00000000000577fc       0x18 ./Source/acpica/hardware/hwsleep.o
 *fill*         0x0000000000057814        0xc 
 .rodata        0x0000000000057820      0x187 ./Source/acpica/hardware/hwvalid.o
 *fill*         0x00000000000579a7        0x1 
 .rodata        0x00000000000579a8       0x45 ./Source/acpica/hardware/hwxfsleep.o
 *fill*         0x00000000000579ed        0x3 
 .rodata        0x00000000000579f0       0x82 ./Source/acpica/hardware/hwxface.o
 *fill*         0x0000000000057a72        0x2 
 .rodata        0x0000000000057a74        0x8 ./Source/acpica/namespace/nsxfobj.o
 .rodata        0x0000000000057a7c      0x1b6 ./Source/acpica/namespace/nsprepkg.o
 *fill*         0x0000000000057c32        0x2 
 .rodata        0x0000000000057c34      0x14a ./Source/acpica/namespace/nsaccess.o
 *fill*         0x0000000000057d7e        0x2 
 .rodata        0x0000000000057d80       0x63 ./Source/acpica/namespace/nsnames.o
 *fill*         0x0000000000057de3        0x1 
 .rodata        0x0000000000057de4      0x3b6 ./Source/acpica/namespace/nsdump.o
 *fill*         0x000000000005819a        0x2 
 .rodata        0x000000000005819c        0x9 ./Source/acpica/namespace/nsdumpdv.o
 *fill*         0x00000000000581a5        0x3 
 .rodata        0x00000000000581a8        0xa ./Source/acpica/namespace/nsconvert.o
 *fill*         0x00000000000581b2        0x2 
 .rodata        0x00000000000581b4       0x5e ./Source/acpica/namespace/nsutils.o
 *fill*         0x0000000000058212        0x2 
 .rodata        0x0000000000058214      0x147 ./Source/acpica/namespace/nseval.o
 *fill*         0x000000000005835b        0x5 
 .rodata        0x0000000000058360      0xa4c ./Source/acpica/namespace/nspredef.o
                0x0000000000058360                AcpiGbl_PredefinedMethods
 .rodata        0x0000000000058dac       0x1a ./Source/acpica/namespace/nsxfname.o
 *fill*         0x0000000000058dc6       0x1a 
 .rodata        0x0000000000058de0       0xf2 ./Source/acpica/namespace/nsrepair.o
 *fill*         0x0000000000058ed2        0x2 
 .rodata        0x0000000000058ed4        0x7 ./Source/acpica/namespace/nswalk.o
 *fill*         0x0000000000058edb        0x1 
 .rodata        0x0000000000058edc       0x8e ./Source/acpica/namespace/nsxfeval.o
 *fill*         0x0000000000058f6a        0x2 
 .rodata        0x0000000000058f6c      0x266 ./Source/acpica/namespace/nsarguments.o
 *fill*         0x00000000000591d2        0x2 
 .rodata        0x00000000000591d4       0xf9 ./Source/acpica/namespace/nsinit.o
 *fill*         0x00000000000592cd        0x3 
 .rodata        0x00000000000592d0       0x26 ./Source/acpica/namespace/nsalloc.o
 *fill*         0x00000000000592f6        0x2 
 .rodata        0x00000000000592f8       0x6d ./Source/acpica/namespace/nsobject.o
 *fill*         0x0000000000059365        0x3 
 .rodata        0x0000000000059368       0x3c ./Source/acpica/namespace/nssearch.o
 .rodata        0x00000000000593a4        0x7 ./Source/acpica/namespace/nsload.o
 *fill*         0x00000000000593ab        0x1 
 .rodata        0x00000000000593ac        0xd ./Source/acpica/namespace/nsparse.o
 *fill*         0x00000000000593b9        0x7 
 .rodata        0x00000000000593c0      0x1e3 ./Source/acpica/namespace/nsrepair2.o
 *fill*         0x00000000000595a3        0x1 
 .rodata        0x00000000000595a4      0x120 ./Source/acpica/parser/psargs.o
 .rodata        0x00000000000596c4        0x8 ./Source/acpica/parser/psscope.o
 .rodata        0x00000000000596cc        0x8 ./Source/acpica/parser/psutils.o
 *fill*         0x00000000000596d4        0xc 
 .rodata        0x00000000000596e0      0x1c9 ./Source/acpica/parser/psopinfo.o
                0x0000000000059720                AcpiGbl_ShortOpIndex
                0x0000000000059820                AcpiGbl_LongOpIndex
 *fill*         0x00000000000598a9        0x3 
 .rodata        0x00000000000598ac        0x7 ./Source/acpica/parser/pswalk.o
 *fill*         0x00000000000598b3        0x1 
 .rodata        0x00000000000598b4       0x9b ./Source/acpica/parser/psloop.o
 *fill*         0x000000000005994f        0x1 
 .rodata        0x0000000000059950       0x23 ./Source/acpica/parser/pstree.o
 *fill*         0x0000000000059973        0xd 
 .rodata        0x0000000000059980      0x850 ./Source/acpica/parser/psopcode.o
                0x00000000000599a0                AcpiGbl_AmlOpInfo
 .rodata        0x000000000005a1d0       0x89 ./Source/acpica/parser/psobject.o
 *fill*         0x000000000005a259        0x3 
 .rodata        0x000000000005a25c       0x3e ./Source/acpica/parser/psparse.o
 *fill*         0x000000000005a29a        0x2 
 .rodata        0x000000000005a29c        0x8 ./Source/acpica/parser/psxface.o
 .rodata        0x000000000005a2a4       0x41 ./Source/acpica/resources/rsutils.o
 *fill*         0x000000000005a2e5       0x1b 
 .rodata        0x000000000005a300       0xa8 ./Source/acpica/resources/rsio.o
                0x000000000005a308                AcpiRsConvertIo
                0x000000000005a31c                AcpiRsConvertFixedIo
                0x000000000005a32c                AcpiRsConvertGenericReg
                0x000000000005a33c                AcpiRsConvertEndDpf
                0x000000000005a344                AcpiRsConvertEndTag
                0x000000000005a34c                AcpiRsGetStartDpf
                0x000000000005a380                AcpiRsSetStartDpf
 *fill*         0x000000000005a3a8       0x18 
 .rodata        0x000000000005a3c0       0xf0 ./Source/acpica/resources/rsirq.o
                0x000000000005a3e0                AcpiRsGetIrq
                0x000000000005a420                AcpiRsSetIrq
                0x000000000005a460                AcpiRsConvertExtIrq
                0x000000000005a488                AcpiRsConvertDma
                0x000000000005a4a0                AcpiRsConvertFixedDma
 *fill*         0x000000000005a4b0       0x10 
 .rodata        0x000000000005a4c0       0x6c ./Source/acpica/resources/rsinfo.o
                0x000000000005a4c8                AcpiGbl_AmlResourceSizes
                0x000000000005a500                AcpiGbl_ResourceStructSizes
                0x000000000005a524                AcpiGbl_AmlResourceSerialBusSizes
                0x000000000005a528                AcpiGbl_ResourceStructSerialBusSizes
 .rodata        0x000000000005a52c      0x180 ./Source/acpica/resources/rsmisc.o
 *fill*         0x000000000005a6ac       0x14 
 .rodata        0x000000000005a6c0      0x2d8 ./Source/acpica/resources/rsserial.o
                0x000000000005a6e0                AcpiRsConvertGpio
                0x000000000005a740                AcpiRsConvertPinFunction
                0x000000000005a780                AcpiRsConvertI2cSerialBus
                0x000000000005a7e0                AcpiRsConvertSpiSerialBus
                0x000000000005a840                AcpiRsConvertUartSerialBus
                0x000000000005a8a0                AcpiRsConvertPinConfig
                0x000000000005a8e0                AcpiRsConvertPinGroup
                0x000000000005a920                AcpiRsConvertPinGroupFunction
                0x000000000005a960                AcpiRsConvertPinGroupConfig
 .rodata        0x000000000005a998       0x70 ./Source/acpica/resources/rsmemory.o
                0x000000000005a9a4                AcpiRsConvertMemory24
                0x000000000005a9b4                AcpiRsConvertMemory32
                0x000000000005a9c4                AcpiRsConvertFixedMemory32
                0x000000000005a9d4                AcpiRsGetVendorSmall
                0x000000000005a9e0                AcpiRsGetVendorLarge
                0x000000000005a9ec                AcpiRsSetVendor
 .rodata        0x000000000005aa08      0x11e ./Source/acpica/resources/rslist.o
 *fill*         0x000000000005ab26        0x2 
 .rodata        0x000000000005ab28       0x94 ./Source/acpica/resources/rsaddr.o
                0x000000000005ab30                AcpiRsConvertAddress16
                0x000000000005ab44                AcpiRsConvertAddress32
                0x000000000005ab58                AcpiRsConvertAddress64
                0x000000000005ab6c                AcpiRsConvertExtAddress64
 .rodata        0x000000000005abbc      0x238 ./Source/acpica/resources/rscalc.o
 .rodata        0x000000000005adf4       0x1c ./Source/acpica/resources/rsxface.o
 .rodata        0x000000000005ae10      0x12d ./Source/acpica/resources/rscreate.o
 *fill*         0x000000000005af3d        0x3 
 .rodata        0x000000000005af40     0x11b2 ./Source/acpica/resources/rsdumpinfo.o
                0x000000000005afa0                AcpiRsDumpIrq
                0x000000000005b040                AcpiRsDumpDma
                0x000000000005b0e0                AcpiRsDumpStartDpf
                0x000000000005b120                AcpiRsDumpEndDpf
                0x000000000005b180                AcpiRsDumpIo
                0x000000000005b1d0                AcpiRsDumpFixedIo
                0x000000000005b214                AcpiRsDumpVendor
                0x000000000005b23c                AcpiRsDumpEndTag
                0x000000000005b280                AcpiRsDumpMemory24
                0x000000000005b2e0                AcpiRsDumpMemory32
                0x000000000005b340                AcpiRsDumpFixedMemory32
                0x000000000005b3c0                AcpiRsDumpAddress16
                0x000000000005b440                AcpiRsDumpAddress32
                0x000000000005b4c0                AcpiRsDumpAddress64
                0x000000000005b560                AcpiRsDumpExtAddress64
                0x000000000005b5e0                AcpiRsDumpExtIrq
                0x000000000005b680                AcpiRsDumpGenericReg
                0x000000000005b780                AcpiRsDumpGpio
                0x000000000005b840                AcpiRsDumpPinFunction
                0x000000000005b8e0                AcpiRsDumpPinConfig
                0x000000000005b980                AcpiRsDumpPinGroup
                0x000000000005ba00                AcpiRsDumpPinGroupFunction
                0x000000000005ba80                AcpiRsDumpPinGroupConfig
                0x000000000005bb20                AcpiRsDumpFixedDma
                0x000000000005bba0                AcpiRsDumpCommonSerialBus
                0x000000000005bc60                AcpiRsDumpI2cSerialBus
                0x000000000005bd60                AcpiRsDumpSpiSerialBus
                0x000000000005be80                AcpiRsDumpUartSerialBus
                0x000000000005bfa0                AcpiRsDumpGeneralFlags
                0x000000000005c020                AcpiRsDumpMemoryFlags
                0x000000000005c080                AcpiRsDumpIoFlags
                0x000000000005c0c0                AcpiRsDumpPrt
 *fill*         0x000000000005c0f2        0x2 
 .rodata        0x000000000005c0f4      0x1b5 ./Source/acpica/resources/rsdump.o
 *fill*         0x000000000005c2a9        0x3 
 .rodata        0x000000000005c2ac       0xbe ./Source/acpica/tables/tbinstal.o
 *fill*         0x000000000005c36a        0x2 
 .rodata        0x000000000005c36c       0x41 ./Source/acpica/tables/tbxface.o
 *fill*         0x000000000005c3ad        0x3 
 .rodata        0x000000000005c3b0       0xf8 ./Source/acpica/tables/tbdata.o
 .rodata        0x000000000005c4a8      0x2f9 ./Source/acpica/tables/tbfadt.o
 *fill*         0x000000000005c7a1        0x3 
 .rodata        0x000000000005c7a4       0x5d ./Source/acpica/tables/tbxfroot.o
 *fill*         0x000000000005c801        0x3 
 .rodata        0x000000000005c804       0xe1 ./Source/acpica/tables/tbprint.o
 *fill*         0x000000000005c8e5        0x3 
 .rodata        0x000000000005c8e8      0x177 ./Source/acpica/tables/tbutils.o
 *fill*         0x000000000005ca5f        0x1 
 .rodata        0x000000000005ca60      0x127 ./Source/acpica/tables/tbxfload.o
 *fill*         0x000000000005cb87        0x1 
 .rodata        0x000000000005cb88        0x7 ./Source/acpica/tables/tbfind.o
 *fill*         0x000000000005cb8f        0x1 
 .rodata        0x000000000005cb90       0x9c ./Source/acpica/utilities/utxferror.o
 .rodata        0x000000000005cc2c      0x1b4 ./Source/acpica/utilities/utobject.o
 .rodata        0x000000000005cde0       0xa0 ./Source/acpica/utilities/uteval.o
 .rodata        0x000000000005ce80       0x66 ./Source/acpica/utilities/utaddress.o
 *fill*         0x000000000005cee6        0x2 
 .rodata        0x000000000005cee8       0x2d ./Source/acpica/utilities/utinit.o
 *fill*         0x000000000005cf15        0xb 
 .rodata        0x000000000005cf20      0x121 ./Source/acpica/utilities/utclib.o
                0x000000000005cf40                AcpiGbl_Ctypes
 *fill*         0x000000000005d041        0x3 
 .rodata        0x000000000005d044      0x19f ./Source/acpica/utilities/utosi.o
 *fill*         0x000000000005d1e3        0x1 
 .rodata        0x000000000005d1e4        0x8 ./Source/acpica/utilities/utxface.o
 .rodata        0x000000000005d1ec      0x14b ./Source/acpica/utilities/utcopy.o
 *fill*         0x000000000005d337        0x1 
 .rodata        0x000000000005d338       0x1a ./Source/acpica/utilities/utids.o
 *fill*         0x000000000005d352        0x2 
 .rodata        0x000000000005d354       0x60 ./Source/acpica/utilities/utbuffer.o
 *fill*         0x000000000005d3b4        0xc 
 .rodata        0x000000000005d3c0      0x158 ./Source/acpica/utilities/utglobal.o
                0x000000000005d41c                AcpiGbl_LowerHexDigits
                0x000000000005d430                AcpiGbl_UpperHexDigits
                0x000000000005d4a0                AcpiGbl_PreDefinedNames
 .rodata        0x000000000005d518       0xd8 ./Source/acpica/utilities/utxfinit.o
 .rodata        0x000000000005d5f0       0x2f ./Source/acpica/utilities/utstate.o
 *fill*         0x000000000005d61f        0x1 
 .rodata        0x000000000005d620      0x129 ./Source/acpica/utilities/uterror.o
 *fill*         0x000000000005d749        0x3 
 .rodata        0x000000000005d74c      0x1e1 ./Source/acpica/utilities/utstring.o
 *fill*         0x000000000005d92d        0x3 
 .rodata        0x000000000005d930      0x7ec ./Source/acpica/utilities/utdecode.o
                0x000000000005d93c                AcpiGbl_NsProperties
 .rodata        0x000000000005e11c      0x1ec ./Source/acpica/utilities/utdelete.o
 .rodata        0x000000000005e308       0xb2 ./Source/acpica/utilities/utownerid.o
 *fill*         0x000000000005e3ba        0x6 
 .rodata        0x000000000005e3c0      0x930 ./Source/acpica/utilities/utexcep.o
 .rodata        0x000000000005ecf0       0x3b ./Source/acpica/utilities/utpredef.o
 *fill*         0x000000000005ed2b        0x1 
 .rodata        0x000000000005ed2c        0x8 ./Source/acpica/utilities/utdebug.o
 .rodata        0x000000000005ed34       0x18 ./Source/acpica/utilities/uthex.o
 *fill*         0x000000000005ed4c       0x14 
 .rodata        0x000000000005ed60      0x154 ./Source/acpica/utilities/utresrc.o
                0x000000000005ed80                AcpiGbl_ResourceAmlSizes
                0x000000000005eda4                AcpiGbl_ResourceAmlSerialBusSizes
 .rodata        0x000000000005eeb4        0x7 ./Source/acpica/utilities/utlock.o
 *fill*         0x000000000005eebb        0x1 
 .rodata        0x000000000005eebc        0xb ./Source/acpica/utilities/utstrsuppt.o
 *fill*         0x000000000005eec7        0x1 
 .rodata        0x000000000005eec8       0x48 ./Source/acpica/utilities/utalloc.o
 .rodata        0x000000000005ef10        0xa ./Source/acpica/utilities/utxfmutex.o
 *fill*         0x000000000005ef1a        0x2 
 .rodata        0x000000000005ef1c      0x160 ./Source/acpica/utilities/utprint.o
 .rodata        0x000000000005f07c        0x8 ./Source/acpica/utilities/utcache.o
 .rodata        0x000000000005f084        0x7 ./Source/acpica/utilities/utuuid.o
 *fill*         0x000000000005f08b        0x1 
 .rodata        0x000000000005f08c       0x16 ./Source/acpica/utilities/utmath.o
 *fill*         0x000000000005f0a2        0x2 
 .rodata        0x000000000005f0a4       0x6a ./Source/acpica/utilities/utmutex.o
 *fill*         0x000000000005f10e        0x2 
 .rodata        0x000000000005f110        0xc ./Source/acpica/utilities/utstrtoul64.o
 .rodata        0x000000000005f11c      0x6c0 ./Source/acpica/utilities/utresdecode.o
 .rodata        0x000000000005f7dc        0xa ./Source/acpica/utilities/utnonansi.o
 *fill*         0x000000000005f7e6        0x2 
 .rodata        0x000000000005f7e8       0x3f ./Source/acpica/utilities/utmisc.o

.rel.dyn        0x000000000005f828        0x0
 .rel.got       0x000000000005f828        0x0 ./Source/core/NSOKernel.o
 .rel.iplt      0x000000000005f828        0x0 ./Source/core/NSOKernel.o
 .rel._main     0x000000000005f828        0x0 ./Source/core/NSOKernel.o
 .rel.text      0x000000000005f828        0x0 ./Source/core/NSOKernel.o
 .rel.data      0x000000000005f828        0x0 ./Source/core/NSOKernel.o

.data           0x0000000000060000      0xb98
 *(.data)
 .data          0x0000000000060000        0x0 ./Source/core/NSOKernel.o
 .data          0x0000000000060000        0x0 ./Source/core/NSOBiosMaps.o
 .data          0x0000000000060000        0x0 ./Source/core/NSOThread.o
 .data          0x0000000000060000        0x0 ./Source/core/NSOAllocator.o
 .data          0x0000000000060000        0x0 ./Source/core/NSOProcess.o
 .data          0x0000000000060000        0x0 ./Source/core/NSOInterrupts.o
 .data          0x0000000000060000        0x0 ./Source/core/NSOIOAPIC.o
 .data          0x0000000000060000        0x0 ./Source/core/NSOPAllocator.o
 .data          0x0000000000060000        0x0 ./Source/core/NSOPaging.o
 .data          0x0000000000060000        0x0 ./Source/core/NSOSched.o
 .data          0x0000000000060000        0x0 ./Source/core/NSOCacheControl.o
 .data          0x0000000000060000       0x40 ./Source/core/NSOInterruptController.o
 .data          0x0000000000060040        0x0 ./Source/core/NSOPCI.o
 .data          0x0000000000060040        0x0 ./Source/core/NSOMP.o
 .data          0x0000000000060040        0x0 ./Source/core/NSOCExceptions.o
 .data          0x0000000000060040        0x0 ./Source/core/NSOIDE.o
 .data          0x0000000000060040        0x0 ./Source/devices/NSOAPIC.o
 .data          0x0000000000060040        0x8 ./Source/devices/NSOHPET.o
                0x0000000000060040                _kernel_tiHead
 .data          0x0000000000060048        0x0 ./Source/devices/NSO8259A.o
 .data          0x0000000000060048        0x0 ./Source/devices/NSOPIT.o
 .data          0x0000000000060048        0x0 ./Source/utils/NSOLocks2.o
 .data          0x0000000000060048        0x0 ./Source/utils/NSOStringUtils.o
 .data          0x0000000000060048        0x0 ./Source/utils/NSOBochs.o
 .data          0x0000000000060048        0x0 ./Source/utils/NSOCoreUtils.o
 .data          0x0000000000060048        0x0 ./Source/acpica/NSOACPIOSL.o
 .data          0x0000000000060048        0x0 ./Source/acpica/debugger/dbcmds.o
 *fill*         0x0000000000060048       0x18 
 .data          0x0000000000060060       0x8e ./Source/acpica/debugger/dbtest.o
 .data          0x00000000000600ee        0x0 ./Source/acpica/debugger/dbutils.o
 .data          0x00000000000600ee        0x0 ./Source/acpica/debugger/dbexec.o
 .data          0x00000000000600ee        0x0 ./Source/acpica/debugger/dbmethod.o
 *fill*         0x00000000000600ee       0x12 
 .data          0x0000000000060100       0x48 ./Source/acpica/debugger/dbdisply.o
 *fill*         0x0000000000060148       0x18 
 .data          0x0000000000060160       0x20 ./Source/acpica/debugger/dbstats.o
 .data          0x0000000000060180        0x0 ./Source/acpica/debugger/dbobject.o
 .data          0x0000000000060180        0x0 ./Source/acpica/debugger/dbfileio.o
 .data          0x0000000000060180        0x4 ./Source/acpica/debugger/dbhistry.o
                0x0000000000060180                AcpiGbl_NextCmdNum
 .data          0x0000000000060184        0x0 ./Source/acpica/debugger/dbinput.o
 .data          0x0000000000060184        0x0 ./Source/acpica/debugger/dbxface.o
 .data          0x0000000000060184        0x0 ./Source/acpica/debugger/dbconvert.o
 *fill*         0x0000000000060184       0x1c 
 .data          0x00000000000601a0       0x74 ./Source/acpica/debugger/dbnames.o
 *fill*         0x0000000000060214        0xc 
 .data          0x0000000000060220       0x30 ./Source/acpica/dispatcher/dswexec.o
 .data          0x0000000000060250        0x0 ./Source/acpica/dispatcher/dsmethod.o
 .data          0x0000000000060250        0x0 ./Source/acpica/dispatcher/dsdebug.o
 .data          0x0000000000060250        0x0 ./Source/acpica/dispatcher/dspkginit.o
 .data          0x0000000000060250        0x0 ./Source/acpica/dispatcher/dswload2.o
 .data          0x0000000000060250        0x0 ./Source/acpica/dispatcher/dswload.o
 .data          0x0000000000060250        0x0 ./Source/acpica/dispatcher/dswstate.o
 .data          0x0000000000060250        0x0 ./Source/acpica/dispatcher/dsopcode.o
 .data          0x0000000000060250        0x0 ./Source/acpica/dispatcher/dsobject.o
 .data          0x0000000000060250        0x0 ./Source/acpica/dispatcher/dsutils.o
 .data          0x0000000000060250        0x0 ./Source/acpica/dispatcher/dscontrol.o
 .data          0x0000000000060250        0x0 ./Source/acpica/dispatcher/dswscope.o
 .data          0x0000000000060250        0x0 ./Source/acpica/dispatcher/dsmthdat.o
 .data          0x0000000000060250        0x0 ./Source/acpica/dispatcher/dsargs.o
 .data          0x0000000000060250        0x0 ./Source/acpica/dispatcher/dsfield.o
 .data          0x0000000000060250        0x0 ./Source/acpica/dispatcher/dsinit.o
 .data          0x0000000000060250        0x0 ./Source/acpica/events/evxfgpe.o
 .data          0x0000000000060250        0x0 ./Source/acpica/events/evxfevnt.o
 .data          0x0000000000060250        0x0 ./Source/acpica/events/evxfregn.o
 .data          0x0000000000060250        0x0 ./Source/acpica/events/evgpeutil.o
 .data          0x0000000000060250        0x0 ./Source/acpica/events/evsci.o
 .data          0x0000000000060250        0x4 ./Source/acpica/events/evhandler.o
                0x0000000000060250                AcpiGbl_DefaultAddressSpaces
 .data          0x0000000000060254        0x0 ./Source/acpica/events/evrgnini.o
 .data          0x0000000000060254        0x0 ./Source/acpica/events/evxface.o
 .data          0x0000000000060254        0x0 ./Source/acpica/events/evmisc.o
 .data          0x0000000000060254        0x0 ./Source/acpica/events/evgpe.o
 .data          0x0000000000060254        0x0 ./Source/acpica/events/evevent.o
 .data          0x0000000000060254        0x0 ./Source/acpica/events/evregion.o
 .data          0x0000000000060254        0x0 ./Source/acpica/events/evgpeblk.o
 .data          0x0000000000060254        0x0 ./Source/acpica/events/evglock.o
 .data          0x0000000000060254        0x0 ./Source/acpica/events/evgpeinit.o
 .data          0x0000000000060254        0x0 ./Source/acpica/executer/exmisc.o
 .data          0x0000000000060254        0x0 ./Source/acpica/executer/exresnte.o
 .data          0x0000000000060254        0x0 ./Source/acpica/executer/exnames.o
 .data          0x0000000000060254        0x0 ./Source/acpica/executer/exoparg1.o
 .data          0x0000000000060254        0x0 ./Source/acpica/executer/exregion.o
 .data          0x0000000000060254        0x0 ./Source/acpica/executer/extrace.o
 .data          0x0000000000060254        0x0 ./Source/acpica/executer/exoparg6.o
 .data          0x0000000000060254        0x0 ./Source/acpica/executer/exoparg3.o
 .data          0x0000000000060254        0x0 ./Source/acpica/executer/exserial.o
 .data          0x0000000000060254        0x0 ./Source/acpica/executer/exconcat.o
 .data          0x0000000000060254        0x0 ./Source/acpica/executer/exfldio.o
 .data          0x0000000000060254        0x0 ./Source/acpica/executer/exmutex.o
 .data          0x0000000000060254        0x0 ./Source/acpica/executer/exoparg2.o
 *fill*         0x0000000000060254        0xc 
 .data          0x0000000000060260       0x78 ./Source/acpica/executer/exdump.o
 .data          0x00000000000602d8        0x0 ./Source/acpica/executer/exstore.o
 .data          0x00000000000602d8        0x0 ./Source/acpica/executer/exconvrt.o
 .data          0x00000000000602d8        0x0 ./Source/acpica/executer/exstorob.o
 .data          0x00000000000602d8        0x0 ./Source/acpica/executer/excreate.o
 .data          0x00000000000602d8        0x0 ./Source/acpica/executer/exfield.o
 .data          0x00000000000602d8        0x0 ./Source/acpica/executer/exprep.o
 .data          0x00000000000602d8        0x0 ./Source/acpica/executer/exdebug.o
 .data          0x00000000000602d8        0x0 ./Source/acpica/executer/exstoren.o
 .data          0x00000000000602d8        0x0 ./Source/acpica/executer/exresolv.o
 .data          0x00000000000602d8        0x0 ./Source/acpica/executer/exconfig.o
 .data          0x00000000000602d8        0x0 ./Source/acpica/executer/exsystem.o
 .data          0x00000000000602d8        0x0 ./Source/acpica/executer/exresop.o
 .data          0x00000000000602d8        0x0 ./Source/acpica/executer/exutils.o
 .data          0x00000000000602d8        0x0 ./Source/acpica/hardware/hwtimer.o
 .data          0x00000000000602d8        0x0 ./Source/acpica/hardware/hwesleep.o
 .data          0x00000000000602d8        0x0 ./Source/acpica/hardware/hwpci.o
 .data          0x00000000000602d8        0x0 ./Source/acpica/hardware/hwgpe.o
 .data          0x00000000000602d8        0x0 ./Source/acpica/hardware/hwacpi.o
 .data          0x00000000000602d8        0x0 ./Source/acpica/hardware/hwregs.o
 .data          0x00000000000602d8        0x0 ./Source/acpica/hardware/hwsleep.o
 .data          0x00000000000602d8        0x0 ./Source/acpica/hardware/hwvalid.o
 .data          0x00000000000602d8       0x18 ./Source/acpica/hardware/hwxfsleep.o
 .data          0x00000000000602f0        0x0 ./Source/acpica/hardware/hwxface.o
 .data          0x00000000000602f0        0x0 ./Source/acpica/namespace/nsxfobj.o
 .data          0x00000000000602f0        0x0 ./Source/acpica/namespace/nsprepkg.o
 .data          0x00000000000602f0        0x0 ./Source/acpica/namespace/nsaccess.o
 .data          0x00000000000602f0        0x0 ./Source/acpica/namespace/nsnames.o
 .data          0x00000000000602f0        0x0 ./Source/acpica/namespace/nsdump.o
 .data          0x00000000000602f0        0x0 ./Source/acpica/namespace/nsdumpdv.o
 .data          0x00000000000602f0        0x0 ./Source/acpica/namespace/nsconvert.o
 .data          0x00000000000602f0        0x0 ./Source/acpica/namespace/nsutils.o
 .data          0x00000000000602f0        0x0 ./Source/acpica/namespace/nseval.o
 .data          0x00000000000602f0        0x0 ./Source/acpica/namespace/nspredef.o
 .data          0x00000000000602f0        0x0 ./Source/acpica/namespace/nsxfname.o
 .data          0x00000000000602f0        0x0 ./Source/acpica/namespace/nsrepair.o
 .data          0x00000000000602f0        0x0 ./Source/acpica/namespace/nswalk.o
 .data          0x00000000000602f0        0x0 ./Source/acpica/namespace/nsxfeval.o
 .data          0x00000000000602f0        0x0 ./Source/acpica/namespace/nsarguments.o
 .data          0x00000000000602f0        0x0 ./Source/acpica/namespace/nsinit.o
 .data          0x00000000000602f0        0x0 ./Source/acpica/namespace/nsalloc.o
 .data          0x00000000000602f0        0x0 ./Source/acpica/namespace/nsobject.o
 .data          0x00000000000602f0        0x0 ./Source/acpica/namespace/nssearch.o
 .data          0x00000000000602f0        0x0 ./Source/acpica/namespace/nsload.o
 .data          0x00000000000602f0        0x0 ./Source/acpica/namespace/nsparse.o
 .data          0x00000000000602f0        0x0 ./Source/acpica/namespace/nsrepair2.o
 .data          0x00000000000602f0        0x0 ./Source/acpica/parser/psargs.o
 .data          0x00000000000602f0        0x0 ./Source/acpica/parser/psscope.o
 .data          0x00000000000602f0        0x0 ./Source/acpica/parser/psutils.o
 .data          0x00000000000602f0        0x0 ./Source/acpica/parser/psopinfo.o
 .data          0x00000000000602f0        0x0 ./Source/acpica/parser/pswalk.o
 .data          0x00000000000602f0        0x0 ./Source/acpica/parser/psloop.o
 .data          0x00000000000602f0        0x0 ./Source/acpica/parser/pstree.o
 .data          0x00000000000602f0        0x0 ./Source/acpica/parser/psopcode.o
 .data          0x00000000000602f0        0x0 ./Source/acpica/parser/psobject.o
 .data          0x00000000000602f0        0x0 ./Source/acpica/parser/psparse.o
 .data          0x00000000000602f0        0x0 ./Source/acpica/parser/psxface.o
 .data          0x00000000000602f0        0x0 ./Source/acpica/resources/rsutils.o
 .data          0x00000000000602f0        0x0 ./Source/acpica/resources/rsio.o
 .data          0x00000000000602f0        0x0 ./Source/acpica/resources/rsirq.o
 *fill*         0x00000000000602f0       0x10 
 .data          0x0000000000060300      0x194 ./Source/acpica/resources/rsinfo.o
                0x0000000000060300                AcpiGbl_SetResourceDispatch
                0x0000000000060380                AcpiGbl_GetResourceDispatch
                0x000000000006040c                AcpiGbl_ConvertResourceSerialBusDispatch
                0x0000000000060420                AcpiGbl_DumpResourceDispatch
                0x0000000000060484                AcpiGbl_DumpSerialBusDispatch
 .data          0x0000000000060494        0x0 ./Source/acpica/resources/rsmisc.o
 .data          0x0000000000060494        0x0 ./Source/acpica/resources/rsserial.o
 .data          0x0000000000060494        0x0 ./Source/acpica/resources/rsmemory.o
 .data          0x0000000000060494        0x0 ./Source/acpica/resources/rslist.o
 .data          0x0000000000060494        0x0 ./Source/acpica/resources/rsaddr.o
 .data          0x0000000000060494        0x0 ./Source/acpica/resources/rscalc.o
 .data          0x0000000000060494        0x0 ./Source/acpica/resources/rsxface.o
 .data          0x0000000000060494        0x0 ./Source/acpica/resources/rscreate.o
 .data          0x0000000000060494        0x0 ./Source/acpica/resources/rsdumpinfo.o
 .data          0x0000000000060494        0x0 ./Source/acpica/resources/rsdump.o
 .data          0x0000000000060494        0x0 ./Source/acpica/tables/tbinstal.o
 .data          0x0000000000060494        0x0 ./Source/acpica/tables/tbxface.o
 .data          0x0000000000060494        0x0 ./Source/acpica/tables/tbdata.o
 *fill*         0x0000000000060494        0xc 
 .data          0x00000000000604a0       0x80 ./Source/acpica/tables/tbfadt.o
 .data          0x0000000000060520        0x0 ./Source/acpica/tables/tbxfroot.o
 .data          0x0000000000060520        0x0 ./Source/acpica/tables/tbprint.o
 .data          0x0000000000060520        0x0 ./Source/acpica/tables/tbutils.o
 .data          0x0000000000060520        0x0 ./Source/acpica/tables/tbxfload.o
 .data          0x0000000000060520        0x0 ./Source/acpica/tables/tbfind.o
 .data          0x0000000000060520        0x0 ./Source/acpica/utilities/utxferror.o
 .data          0x0000000000060520        0x0 ./Source/acpica/utilities/utobject.o
 .data          0x0000000000060520        0x0 ./Source/acpica/utilities/uteval.o
 .data          0x0000000000060520        0x0 ./Source/acpica/utilities/utaddress.o
 .data          0x0000000000060520        0x0 ./Source/acpica/utilities/utinit.o
 .data          0x0000000000060520        0x0 ./Source/acpica/utilities/utclib.o
 .data          0x0000000000060520      0x12c ./Source/acpica/utilities/utosi.o
 .data          0x000000000006064c        0x0 ./Source/acpica/utilities/utxface.o
 .data          0x000000000006064c        0x0 ./Source/acpica/utilities/utcopy.o
 .data          0x000000000006064c        0x0 ./Source/acpica/utilities/utids.o
 .data          0x000000000006064c        0x0 ./Source/acpica/utilities/utbuffer.o
 *fill*         0x000000000006064c       0x14 
 .data          0x0000000000060660       0xee ./Source/acpica/utilities/utglobal.o
                0x0000000000060660                AcpiGbl_AutoSerializeMethods
                0x0000000000060661                AcpiGbl_CreateOsiMethod
                0x0000000000060662                AcpiGbl_UseDefaultRegisterWidths
                0x0000000000060663                AcpiGbl_EnableTableValidation
                0x0000000000060664                AcpiGbl_Use32BitFacsAddresses
                0x0000000000060665                AcpiGbl_RuntimeNamespaceOverride
                0x0000000000060668                AcpiGbl_MaxLoopIterations
                0x000000000006066c                AcpiGbl_TraceDbgLevel
                0x0000000000060670                AcpiGbl_TraceDbgLayer
                0x0000000000060674                AcpiDbgLevel
                0x0000000000060678                AcpiDbgLayer
                0x000000000006067c                AcpiGbl_DsdtIndex
                0x0000000000060680                AcpiGbl_FacsIndex
                0x0000000000060684                AcpiGbl_XFacsIndex
                0x0000000000060688                AcpiGbl_FadtIndex
                0x000000000006068c                AcpiGbl_Shutdown
                0x000000000006068d                AcpiGbl_EarlyInitialization
                0x000000000006068e                AcpiGbl_DbOutputFlags
                0x0000000000060690                AcpiGbl_DbThreadId
                0x0000000000060698                AcpiGbl_SleepStateNames
                0x00000000000606b0                AcpiGbl_LowestDstateNames
                0x00000000000606c4                AcpiGbl_HighestDstateNames
                0x00000000000606e0                AcpiGbl_BitRegisterInfo
                0x0000000000060730                AcpiGbl_FixedEventInfo
 .data          0x000000000006074e        0x0 ./Source/acpica/utilities/utxfinit.o
 .data          0x000000000006074e        0x0 ./Source/acpica/utilities/utstate.o
 .data          0x000000000006074e        0x0 ./Source/acpica/utilities/uterror.o
 .data          0x000000000006074e        0x0 ./Source/acpica/utilities/utstring.o
 *fill*         0x000000000006074e       0x12 
 .data          0x0000000000060760      0x210 ./Source/acpica/utilities/utdecode.o
                0x0000000000060760                AcpiGbl_RegionTypes
 .data          0x0000000000060970        0x0 ./Source/acpica/utilities/utdelete.o
 .data          0x0000000000060970        0x0 ./Source/acpica/utilities/utownerid.o
 .data          0x0000000000060970        0x0 ./Source/acpica/utilities/utascii.o
 .data          0x0000000000060970        0x0 ./Source/acpica/utilities/utexcep.o
 .data          0x0000000000060970       0x14 ./Source/acpica/utilities/utpredef.o
 .data          0x0000000000060984        0x0 ./Source/acpica/utilities/utdebug.o
 .data          0x0000000000060984        0x0 ./Source/acpica/utilities/uthex.o
 .data          0x0000000000060984        0x0 ./Source/acpica/utilities/uttrack.o
 .data          0x0000000000060984        0x0 ./Source/acpica/utilities/utresrc.o
 .data          0x0000000000060984        0x0 ./Source/acpica/utilities/utlock.o
 .data          0x0000000000060984        0x0 ./Source/acpica/utilities/utstrsuppt.o
 .data          0x0000000000060984        0x0 ./Source/acpica/utilities/utalloc.o
 .data          0x0000000000060984        0x0 ./Source/acpica/utilities/utxfmutex.o
 .data          0x0000000000060984        0x0 ./Source/acpica/utilities/utprint.o
 .data          0x0000000000060984        0x0 ./Source/acpica/utilities/utcache.o
 .data          0x0000000000060984        0x0 ./Source/acpica/utilities/utuuid.o
 .data          0x0000000000060984        0x0 ./Source/acpica/utilities/utmath.o
 .data          0x0000000000060984        0x0 ./Source/acpica/utilities/utmutex.o
 .data          0x0000000000060984        0x0 ./Source/acpica/utilities/utstrtoul64.o
 *fill*         0x0000000000060984       0x1c 
 .data          0x00000000000609a0      0x1f8 ./Source/acpica/utilities/utresdecode.o
                0x00000000000609a0                AcpiGbl_BmDecode
                0x00000000000609a8                AcpiGbl_ConfigDecode
                0x00000000000609b8                AcpiGbl_ConsumeDecode
                0x00000000000609c0                AcpiGbl_DecDecode
                0x00000000000609c8                AcpiGbl_HeDecode
                0x00000000000609d0                AcpiGbl_IoDecode
                0x00000000000609d8                AcpiGbl_LlDecode
                0x00000000000609e8                AcpiGbl_MaxDecode
                0x00000000000609f0                AcpiGbl_MemDecode
                0x0000000000060a00                AcpiGbl_MinDecode
                0x0000000000060a08                AcpiGbl_MtpDecode
                0x0000000000060a18                AcpiGbl_RngDecode
                0x0000000000060a28                AcpiGbl_RwDecode
                0x0000000000060a30                AcpiGbl_ShrDecode
                0x0000000000060a40                AcpiGbl_SizDecode
                0x0000000000060a50                AcpiGbl_TrsDecode
                0x0000000000060a58                AcpiGbl_TtpDecode
                0x0000000000060a60                AcpiGbl_TypDecode
                0x0000000000060a70                AcpiGbl_PpcDecode
                0x0000000000060a80                AcpiGbl_IorDecode
                0x0000000000060a90                AcpiGbl_DtsDecode
                0x0000000000060aa8                AcpiGbl_CtDecode
                0x0000000000060ab0                AcpiGbl_SbtDecode
                0x0000000000060ac0                AcpiGbl_AmDecode
                0x0000000000060ac8                AcpiGbl_SmDecode
                0x0000000000060ad0                AcpiGbl_WmDecode
                0x0000000000060ad8                AcpiGbl_CphDecode
                0x0000000000060ae0                AcpiGbl_CpoDecode
                0x0000000000060ae8                AcpiGbl_DpDecode
                0x0000000000060af0                AcpiGbl_EdDecode
                0x0000000000060b00                AcpiGbl_BpbDecode
                0x0000000000060b20                AcpiGbl_SbDecode
                0x0000000000060b30                AcpiGbl_FcDecode
                0x0000000000060b40                AcpiGbl_PtDecode
                0x0000000000060b60                AcpiGbl_PtypDecode
 .data          0x0000000000060b98        0x0 ./Source/acpica/utilities/utnonansi.o
 .data          0x0000000000060b98        0x0 ./Source/acpica/utilities/utmisc.o

.got            0x0000000000060b98        0x0
 .got           0x0000000000060b98        0x0 ./Source/core/NSOKernel.o

.got.plt        0x0000000000060b98        0x0
 .got.plt       0x0000000000060b98        0x0 ./Source/core/NSOKernel.o

.igot.plt       0x0000000000060b98        0x0
 .igot.plt      0x0000000000060b98        0x0 ./Source/core/NSOKernel.o

.bss            0x0000000000061000     0x1c90
 *(.bss)
 .bss           0x0000000000061000        0x0 ./Source/core/NSOKernel.o
 .bss           0x0000000000061000        0x0 ./Source/core/NSOBiosMaps.o
 .bss           0x0000000000061000        0x0 ./Source/core/NSOThread.o
 .bss           0x0000000000061000        0x0 ./Source/core/NSOAllocator.o
 .bss           0x0000000000061000        0x0 ./Source/core/NSOProcess.o
 .bss           0x0000000000061000      0x800 ./Source/core/NSOInterrupts.o
                0x0000000000061000                _kernel_local_IDT
 .bss           0x0000000000061800        0x0 ./Source/core/NSOIOAPIC.o
 .bss           0x0000000000061800      0x114 ./Source/core/NSOPAllocator.o
                0x0000000000061800                _kernel_page_cache
                0x0000000000061900                _kernel_page_cache_p
                0x0000000000061901                _kernel_page_cache_l
                0x0000000000061904                _kernel_pBase
                0x0000000000061908                _kernel_pEnd
                0x000000000006190c                maximumPageN
                0x0000000000061910                _kernel_end
 .bss           0x0000000000061914        0x0 ./Source/core/NSOPaging.o
 .bss           0x0000000000061914        0x0 ./Source/core/NSOSched.o
 .bss           0x0000000000061914        0x0 ./Source/core/NSOCacheControl.o
 *fill*         0x0000000000061914        0xc 
 .bss           0x0000000000061920       0x40 ./Source/core/NSOInterruptController.o
                0x0000000000061920                _kernel_irqBaseNode
 .bss           0x0000000000061960        0xc ./Source/core/NSOPCI.o
                0x0000000000061960                kernel_hostBus
 .bss           0x000000000006196c        0xd ./Source/core/NSOMP.o
 .bss           0x0000000000061979        0x0 ./Source/core/NSOCExceptions.o
 .bss           0x0000000000061979        0x0 ./Source/core/NSOIDE.o
 *fill*         0x0000000000061979        0x3 
 .bss           0x000000000006197c        0x4 ./Source/devices/NSOAPIC.o
 .bss           0x0000000000061980        0x8 ./Source/devices/NSOHPET.o
                0x0000000000061980                _kernel_hpetAddrs
                0x0000000000061984                _kernel_numTimers
 .bss           0x0000000000061988        0x0 ./Source/devices/NSO8259A.o
 .bss           0x0000000000061988       0x10 ./Source/devices/NSOPIT.o
                0x0000000000061988                blockCounts
 .bss           0x0000000000061998        0x0 ./Source/utils/NSOLocks2.o
 .bss           0x0000000000061998        0x0 ./Source/utils/NSOStringUtils.o
 .bss           0x0000000000061998        0x0 ./Source/utils/NSOBochs.o
 .bss           0x0000000000061998        0x8 ./Source/utils/NSOCoreUtils.o
 .bss           0x00000000000619a0        0x0 ./Source/acpica/NSOACPIOSL.o
 .bss           0x00000000000619a0        0x4 ./Source/acpica/debugger/dbcmds.o
 .bss           0x00000000000619a4        0x8 ./Source/acpica/debugger/dbtest.o
 .bss           0x00000000000619ac        0x0 ./Source/acpica/debugger/dbutils.o
 *fill*         0x00000000000619ac       0x14 
 .bss           0x00000000000619c0      0x294 ./Source/acpica/debugger/dbexec.o
 .bss           0x0000000000061c54        0x0 ./Source/acpica/debugger/dbmethod.o
 .bss           0x0000000000061c54        0x0 ./Source/acpica/debugger/dbdisply.o
 .bss           0x0000000000061c54        0x0 ./Source/acpica/debugger/dbstats.o
 .bss           0x0000000000061c54        0x0 ./Source/acpica/debugger/dbobject.o
 .bss           0x0000000000061c54        0x0 ./Source/acpica/debugger/dbfileio.o
 *fill*         0x0000000000061c54        0xc 
 .bss           0x0000000000061c60      0x146 ./Source/acpica/debugger/dbhistry.o
 .bss           0x0000000000061da6        0x0 ./Source/acpica/debugger/dbinput.o
 .bss           0x0000000000061da6        0x0 ./Source/acpica/debugger/dbxface.o
 .bss           0x0000000000061da6        0x0 ./Source/acpica/debugger/dbconvert.o
 .bss           0x0000000000061da6        0x0 ./Source/acpica/debugger/dbnames.o
 .bss           0x0000000000061da6        0x0 ./Source/acpica/dispatcher/dswexec.o
 .bss           0x0000000000061da6        0x0 ./Source/acpica/dispatcher/dsmethod.o
 .bss           0x0000000000061da6        0x0 ./Source/acpica/dispatcher/dsdebug.o
 .bss           0x0000000000061da6        0x0 ./Source/acpica/dispatcher/dspkginit.o
 .bss           0x0000000000061da6        0x0 ./Source/acpica/dispatcher/dswload2.o
 .bss           0x0000000000061da6        0x0 ./Source/acpica/dispatcher/dswload.o
 .bss           0x0000000000061da6        0x0 ./Source/acpica/dispatcher/dswstate.o
 .bss           0x0000000000061da6        0x0 ./Source/acpica/dispatcher/dsopcode.o
 .bss           0x0000000000061da6        0x0 ./Source/acpica/dispatcher/dsobject.o
 .bss           0x0000000000061da6        0x0 ./Source/acpica/dispatcher/dsutils.o
 .bss           0x0000000000061da6        0x0 ./Source/acpica/dispatcher/dscontrol.o
 .bss           0x0000000000061da6        0x0 ./Source/acpica/dispatcher/dswscope.o
 .bss           0x0000000000061da6        0x0 ./Source/acpica/dispatcher/dsmthdat.o
 .bss           0x0000000000061da6        0x0 ./Source/acpica/dispatcher/dsargs.o
 .bss           0x0000000000061da6        0x0 ./Source/acpica/dispatcher/dsfield.o
 .bss           0x0000000000061da6        0x0 ./Source/acpica/dispatcher/dsinit.o
 .bss           0x0000000000061da6        0x0 ./Source/acpica/events/evxfgpe.o
 .bss           0x0000000000061da6        0x0 ./Source/acpica/events/evxfevnt.o
 .bss           0x0000000000061da6        0x0 ./Source/acpica/events/evxfregn.o
 .bss           0x0000000000061da6        0x0 ./Source/acpica/events/evgpeutil.o
 .bss           0x0000000000061da6        0x0 ./Source/acpica/events/evsci.o
 .bss           0x0000000000061da6        0x0 ./Source/acpica/events/evhandler.o
 .bss           0x0000000000061da6        0x0 ./Source/acpica/events/evrgnini.o
 .bss           0x0000000000061da6        0x0 ./Source/acpica/events/evxface.o
 .bss           0x0000000000061da6        0x0 ./Source/acpica/events/evmisc.o
 .bss           0x0000000000061da6        0x0 ./Source/acpica/events/evgpe.o
 .bss           0x0000000000061da6        0x0 ./Source/acpica/events/evevent.o
 .bss           0x0000000000061da6        0x0 ./Source/acpica/events/evregion.o
 .bss           0x0000000000061da6        0x0 ./Source/acpica/events/evgpeblk.o
 .bss           0x0000000000061da6        0x0 ./Source/acpica/events/evglock.o
 .bss           0x0000000000061da6        0x0 ./Source/acpica/events/evgpeinit.o
 .bss           0x0000000000061da6        0x0 ./Source/acpica/executer/exmisc.o
 .bss           0x0000000000061da6        0x0 ./Source/acpica/executer/exresnte.o
 .bss           0x0000000000061da6        0x0 ./Source/acpica/executer/exnames.o
 .bss           0x0000000000061da6        0x0 ./Source/acpica/executer/exoparg1.o
 .bss           0x0000000000061da6        0x0 ./Source/acpica/executer/exregion.o
 *fill*         0x0000000000061da6        0x2 
 .bss           0x0000000000061da8        0x4 ./Source/acpica/executer/extrace.o
 .bss           0x0000000000061dac        0x0 ./Source/acpica/executer/exoparg6.o
 .bss           0x0000000000061dac        0x0 ./Source/acpica/executer/exoparg3.o
 .bss           0x0000000000061dac        0x0 ./Source/acpica/executer/exserial.o
 .bss           0x0000000000061dac        0x0 ./Source/acpica/executer/exconcat.o
 .bss           0x0000000000061dac        0x0 ./Source/acpica/executer/exfldio.o
 .bss           0x0000000000061dac        0x0 ./Source/acpica/executer/exmutex.o
 .bss           0x0000000000061dac        0x0 ./Source/acpica/executer/exoparg2.o
 .bss           0x0000000000061dac        0x0 ./Source/acpica/executer/exdump.o
 .bss           0x0000000000061dac        0x0 ./Source/acpica/executer/exstore.o
 .bss           0x0000000000061dac        0x0 ./Source/acpica/executer/exconvrt.o
 .bss           0x0000000000061dac        0x0 ./Source/acpica/executer/exstorob.o
 .bss           0x0000000000061dac        0x0 ./Source/acpica/executer/excreate.o
 .bss           0x0000000000061dac        0x0 ./Source/acpica/executer/exfield.o
 .bss           0x0000000000061dac        0x0 ./Source/acpica/executer/exprep.o
 .bss           0x0000000000061dac        0x0 ./Source/acpica/executer/exdebug.o
 .bss           0x0000000000061dac        0x0 ./Source/acpica/executer/exstoren.o
 .bss           0x0000000000061dac        0x0 ./Source/acpica/executer/exresolv.o
 .bss           0x0000000000061dac        0x0 ./Source/acpica/executer/exconfig.o
 .bss           0x0000000000061dac        0x0 ./Source/acpica/executer/exsystem.o
 .bss           0x0000000000061dac        0x0 ./Source/acpica/executer/exresop.o
 .bss           0x0000000000061dac        0x0 ./Source/acpica/executer/exutils.o
 .bss           0x0000000000061dac        0x0 ./Source/acpica/hardware/hwtimer.o
 .bss           0x0000000000061dac        0x0 ./Source/acpica/hardware/hwesleep.o
 .bss           0x0000000000061dac        0x0 ./Source/acpica/hardware/hwpci.o
 .bss           0x0000000000061dac        0x0 ./Source/acpica/hardware/hwgpe.o
 .bss           0x0000000000061dac        0x0 ./Source/acpica/hardware/hwacpi.o
 .bss           0x0000000000061dac        0x0 ./Source/acpica/hardware/hwregs.o
 .bss           0x0000000000061dac        0x0 ./Source/acpica/hardware/hwsleep.o
 .bss           0x0000000000061dac        0x0 ./Source/acpica/hardware/hwvalid.o
 .bss           0x0000000000061dac        0x0 ./Source/acpica/hardware/hwxfsleep.o
 .bss           0x0000000000061dac        0x0 ./Source/acpica/hardware/hwxface.o
 .bss           0x0000000000061dac        0x0 ./Source/acpica/namespace/nsxfobj.o
 .bss           0x0000000000061dac        0x0 ./Source/acpica/namespace/nsprepkg.o
 .bss           0x0000000000061dac        0x0 ./Source/acpica/namespace/nsaccess.o
 .bss           0x0000000000061dac        0x0 ./Source/acpica/namespace/nsnames.o
 .bss           0x0000000000061dac        0x0 ./Source/acpica/namespace/nsdump.o
 .bss           0x0000000000061dac        0x0 ./Source/acpica/namespace/nsdumpdv.o
 .bss           0x0000000000061dac        0x0 ./Source/acpica/namespace/nsconvert.o
 .bss           0x0000000000061dac        0x0 ./Source/acpica/namespace/nsutils.o
 .bss           0x0000000000061dac        0x0 ./Source/acpica/namespace/nseval.o
 .bss           0x0000000000061dac        0x0 ./Source/acpica/namespace/nspredef.o
 .bss           0x0000000000061dac        0x0 ./Source/acpica/namespace/nsxfname.o
 .bss           0x0000000000061dac        0x0 ./Source/acpica/namespace/nsrepair.o
 .bss           0x0000000000061dac        0x0 ./Source/acpica/namespace/nswalk.o
 .bss           0x0000000000061dac        0x0 ./Source/acpica/namespace/nsxfeval.o
 .bss           0x0000000000061dac        0x0 ./Source/acpica/namespace/nsarguments.o
 .bss           0x0000000000061dac        0x0 ./Source/acpica/namespace/nsinit.o
 .bss           0x0000000000061dac        0x0 ./Source/acpica/namespace/nsalloc.o
 .bss           0x0000000000061dac        0x0 ./Source/acpica/namespace/nsobject.o
 .bss           0x0000000000061dac        0x0 ./Source/acpica/namespace/nssearch.o
 .bss           0x0000000000061dac        0x0 ./Source/acpica/namespace/nsload.o
 .bss           0x0000000000061dac        0x0 ./Source/acpica/namespace/nsparse.o
 .bss           0x0000000000061dac        0x0 ./Source/acpica/namespace/nsrepair2.o
 .bss           0x0000000000061dac        0x0 ./Source/acpica/parser/psargs.o
 .bss           0x0000000000061dac        0x0 ./Source/acpica/parser/psscope.o
 .bss           0x0000000000061dac        0x0 ./Source/acpica/parser/psutils.o
 .bss           0x0000000000061dac        0x0 ./Source/acpica/parser/psopinfo.o
 .bss           0x0000000000061dac        0x0 ./Source/acpica/parser/pswalk.o
 .bss           0x0000000000061dac        0x0 ./Source/acpica/parser/psloop.o
 .bss           0x0000000000061dac        0x0 ./Source/acpica/parser/pstree.o
 .bss           0x0000000000061dac        0x0 ./Source/acpica/parser/psopcode.o
 .bss           0x0000000000061dac        0x0 ./Source/acpica/parser/psobject.o
 .bss           0x0000000000061dac        0x0 ./Source/acpica/parser/psparse.o
 .bss           0x0000000000061dac        0x0 ./Source/acpica/parser/psxface.o
 .bss           0x0000000000061dac        0x0 ./Source/acpica/resources/rsutils.o
 .bss           0x0000000000061dac        0x0 ./Source/acpica/resources/rsio.o
 .bss           0x0000000000061dac        0x0 ./Source/acpica/resources/rsirq.o
 .bss           0x0000000000061dac        0x0 ./Source/acpica/resources/rsinfo.o
 .bss           0x0000000000061dac        0x0 ./Source/acpica/resources/rsmisc.o
 .bss           0x0000000000061dac        0x0 ./Source/acpica/resources/rsserial.o
 .bss           0x0000000000061dac        0x0 ./Source/acpica/resources/rsmemory.o
 .bss           0x0000000000061dac        0x0 ./Source/acpica/resources/rslist.o
 .bss           0x0000000000061dac        0x0 ./Source/acpica/resources/rsaddr.o
 .bss           0x0000000000061dac        0x0 ./Source/acpica/resources/rscalc.o
 .bss           0x0000000000061dac        0x0 ./Source/acpica/resources/rsxface.o
 .bss           0x0000000000061dac        0x0 ./Source/acpica/resources/rscreate.o
 .bss           0x0000000000061dac        0x0 ./Source/acpica/resources/rsdumpinfo.o
 .bss           0x0000000000061dac        0x0 ./Source/acpica/resources/rsdump.o
 .bss           0x0000000000061dac        0x0 ./Source/acpica/tables/tbinstal.o
 .bss           0x0000000000061dac        0x0 ./Source/acpica/tables/tbxface.o
 .bss           0x0000000000061dac        0x0 ./Source/acpica/tables/tbdata.o
 .bss           0x0000000000061dac        0x0 ./Source/acpica/tables/tbfadt.o
 .bss           0x0000000000061dac        0x0 ./Source/acpica/tables/tbxfroot.o
 .bss           0x0000000000061dac        0x0 ./Source/acpica/tables/tbprint.o
 .bss           0x0000000000061dac        0x0 ./Source/acpica/tables/tbutils.o
 .bss           0x0000000000061dac        0x0 ./Source/acpica/tables/tbxfload.o
 .bss           0x0000000000061dac        0x0 ./Source/acpica/tables/tbfind.o
 .bss           0x0000000000061dac        0x0 ./Source/acpica/utilities/utxferror.o
 .bss           0x0000000000061dac        0x0 ./Source/acpica/utilities/utobject.o
 .bss           0x0000000000061dac        0x0 ./Source/acpica/utilities/uteval.o
 .bss           0x0000000000061dac        0x0 ./Source/acpica/utilities/utaddress.o
 .bss           0x0000000000061dac        0x0 ./Source/acpica/utilities/utinit.o
 .bss           0x0000000000061dac        0x4 ./Source/acpica/utilities/utclib.o
 .bss           0x0000000000061db0        0x0 ./Source/acpica/utilities/utosi.o
 .bss           0x0000000000061db0        0x0 ./Source/acpica/utilities/utxface.o
 .bss           0x0000000000061db0        0x0 ./Source/acpica/utilities/utcopy.o
 .bss           0x0000000000061db0        0x0 ./Source/acpica/utilities/utids.o
 .bss           0x0000000000061db0        0x0 ./Source/acpica/utilities/utbuffer.o
 .bss           0x0000000000061db0       0x2d ./Source/acpica/utilities/utglobal.o
                0x0000000000061db0                AcpiGbl_EnableInterpreterSlack
                0x0000000000061db1                AcpiGbl_EnableAmlDebugObject
                0x0000000000061db2                AcpiGbl_CopyDsdtLocally
                0x0000000000061db3                AcpiGbl_DoNotUseXsdt
                0x0000000000061db4                AcpiGbl_Use32BitFadtAddresses
                0x0000000000061db5                AcpiGbl_TruncateIoAddresses
                0x0000000000061db6                AcpiGbl_DisableAutoRepair
                0x0000000000061db7                AcpiGbl_DisableSsdtTableInstall
                0x0000000000061db8                AcpiGbl_OsiData
                0x0000000000061db9                AcpiGbl_ReducedHardware
                0x0000000000061dba                AcpiGbl_IgnorePackageResolutionErrors
                0x0000000000061dbc                AcpiGbl_TraceFlags
                0x0000000000061dc0                AcpiGbl_TraceMethodName
                0x0000000000061dc4                AcpiGbl_DisplayDebugTimer
                0x0000000000061dc5                AcpiGbl_MethodExecuting
                0x0000000000061dc8                AcpiGbl_StartupFlags
                0x0000000000061dcc                AcpiGbl_NamespaceInitialized
                0x0000000000061dd0                AcpiGbl_CurrentScope
                0x0000000000061dd4                AcpiGbl_CaptureComments
                0x0000000000061dd8                AcpiGbl_LastListHead
                0x0000000000061ddc                AcpiGbl_AbortMethod
 .bss           0x0000000000061ddd        0x0 ./Source/acpica/utilities/utxfinit.o
 .bss           0x0000000000061ddd        0x0 ./Source/acpica/utilities/utstate.o
 .bss           0x0000000000061ddd        0x0 ./Source/acpica/utilities/uterror.o
 .bss           0x0000000000061ddd        0x0 ./Source/acpica/utilities/utstring.o
 .bss           0x0000000000061ddd        0x0 ./Source/acpica/utilities/utdecode.o
 .bss           0x0000000000061ddd        0x0 ./Source/acpica/utilities/utdelete.o
 .bss           0x0000000000061ddd        0x0 ./Source/acpica/utilities/utownerid.o
 .bss           0x0000000000061ddd        0x0 ./Source/acpica/utilities/utascii.o
 .bss           0x0000000000061ddd        0x0 ./Source/acpica/utilities/utexcep.o
 .bss           0x0000000000061ddd        0x0 ./Source/acpica/utilities/utpredef.o
 .bss           0x0000000000061ddd        0x0 ./Source/acpica/utilities/utdebug.o
 .bss           0x0000000000061ddd        0x0 ./Source/acpica/utilities/uthex.o
 .bss           0x0000000000061ddd        0x0 ./Source/acpica/utilities/uttrack.o
 .bss           0x0000000000061ddd        0x0 ./Source/acpica/utilities/utresrc.o
 .bss           0x0000000000061ddd        0x0 ./Source/acpica/utilities/utlock.o
 .bss           0x0000000000061ddd        0x0 ./Source/acpica/utilities/utstrsuppt.o
 .bss           0x0000000000061ddd        0x0 ./Source/acpica/utilities/utalloc.o
 .bss           0x0000000000061ddd        0x0 ./Source/acpica/utilities/utxfmutex.o
 .bss           0x0000000000061ddd        0x0 ./Source/acpica/utilities/utprint.o
 .bss           0x0000000000061ddd        0x0 ./Source/acpica/utilities/utcache.o
 .bss           0x0000000000061ddd        0x0 ./Source/acpica/utilities/utuuid.o
 .bss           0x0000000000061ddd        0x0 ./Source/acpica/utilities/utmath.o
 .bss           0x0000000000061ddd        0x0 ./Source/acpica/utilities/utmutex.o
 .bss           0x0000000000061ddd        0x0 ./Source/acpica/utilities/utstrtoul64.o
 .bss           0x0000000000061ddd        0x0 ./Source/acpica/utilities/utresdecode.o
 .bss           0x0000000000061ddd        0x0 ./Source/acpica/utilities/utnonansi.o
 .bss           0x0000000000061ddd        0x0 ./Source/acpica/utilities/utmisc.o
 *fill*         0x0000000000061ddd        0x3 
 COMMON         0x0000000000061de0        0x8 ./Source/core/NSOBiosMaps.o
                0x0000000000061de0                _kernel_MemMap
                0x0000000000061de4                _kernel_MemMapSize
 COMMON         0x0000000000061de8       0x10 ./Source/core/NSOAllocator.o
                0x0000000000061de8                end
                0x0000000000061dec                head
 COMMON         0x0000000000061df8        0x6 ./Source/core/NSOInterrupts.o
                0x0000000000061df8                _kernel_local_pointer
 *fill*         0x0000000000061dfe        0x2 
 COMMON         0x0000000000061e00       0x14 ./Source/core/NSOIOAPIC.o
                0x0000000000061e00                _kernel_baseIO
 COMMON         0x0000000000061e14        0x4 ./Source/core/NSOPaging.o
                0x0000000000061e14                kernel_pageDirectory
 *fill*         0x0000000000061e18        0x8 
 COMMON         0x0000000000061e20       0xe4 ./Source/core/NSOSched.o
                0x0000000000061e20                _kernel_TerminateList
                0x0000000000061e60                _kernel_ReadyList
                0x0000000000061ea0                _kernel_RunningList
                0x0000000000061ee0                _kernel_WaitingList
 *fill*         0x0000000000061f04       0x1c 
 COMMON         0x0000000000061f20       0x28 ./Source/devices/NSOPIT.o
                0x0000000000061f20                blocks
 *fill*         0x0000000000061f48       0x18 
 COMMON         0x0000000000061f60      0xd30 ./Source/acpica/utilities/utglobal.o
                0x0000000000061f60                AcpiGbl_StateCache
                0x0000000000061f80                AcpiGbl_OwnerIdMask
                0x0000000000061fa0                AcpiGbl_StepToNextCall
                0x0000000000061fa4                AcpiGbl_RootTableList
                0x0000000000061fb4                AcpiGbl_FadtGpeDevice
                0x0000000000061fb8                AcpiGbl_GpeXruptListHead
                0x0000000000061fbc                AcpiGbl_GlobalLockHandle
                0x0000000000061fc0                AcpiGbl_RootNodeStruct
                0x0000000000061fd8                AcpiGbl_DbDebugLevel
                0x0000000000061fdc                AcpiGbl_FACS
                0x0000000000061fe0                AcpiGbl_AllGpesInitialized
                0x0000000000062000                AcpiGbl_ObjTypeCount
                0x0000000000062038                AcpiGbl_DbConsoleDebugLevel
                0x000000000006203c                AcpiGbl_GlobalLockMutex
                0x0000000000062040                AcpiGbl_IntegerByteWidth
                0x0000000000062042                AcpiGbl_Pm1EnableRegisterSave
                0x0000000000062060                AcpiGbl_DbArgTypes
                0x000000000006208c                AcpiGbl_NumNodes
                0x0000000000062090                AcpiGbl_NsLookupCount
                0x0000000000062094                AcpiCurrentGpeCount
                0x0000000000062098                AcpiGbl_IntegerBitWidth
                0x0000000000062099                AcpiGbl_DbThreadsTerminated
                0x000000000006209c                AcpiGbl_NamespaceCache
                0x00000000000620a0                AcpiGbl_TableHandler
                0x00000000000620a4                AcpiGbl_HardwareLock
                0x00000000000620a8                AcpiGbl_DbFilename
                0x00000000000620ac                AcpiGbl_DbOpt_NoIniMethods
                0x00000000000620c0                AcpiGbl_FixedEventHandlers
                0x00000000000620e8                AcpiSciCount
                0x00000000000620ec                AcpiGbl_DSDT
                0x00000000000620f0                AcpiGbl_GlobalNotify
                0x0000000000062100                AcpiGbl_GlobalLockSemaphore
                0x0000000000062104                AcpiGbl_SystemAwakeAndRunning
                0x0000000000062108                AcpiGbl_InterfaceHandler
                0x000000000006210c                AcpiGbl_EventsInitialized
                0x0000000000062110                AcpiGbl_SupportedInterfaces
                0x0000000000062114                AcpiGbl_GpeLock
                0x0000000000062118                AcpiGbl_SleepTypeB
                0x000000000006211c                AcpiGbl_InitHandler
                0x0000000000062120                AcpiGbl_GlobalLockAcquired
                0x0000000000062140                AcpiGbl_DbLineBuf
                0x0000000000062340                AcpiGbl_XPm1bEnable
                0x0000000000062360                AcpiGbl_OriginalDsdtHeader
                0x0000000000062384                AcpiGbl_ReferenceCountLock
                0x0000000000062388                AcpiGpeCount
                0x000000000006238c                AcpiGbl_TableHandlerContext
                0x0000000000062390                AcpiGbl_XPm1aStatus
                0x000000000006239c                AcpiGbl_OriginalMode
                0x00000000000623a0                AcpiGbl_CmSingleStep
                0x00000000000623a4                AcpiGbl_GlobalEventHandlerContext
                0x00000000000623a8                AcpiGbl_PsFindCount
                0x00000000000623ac                AcpiGbl_NodeTypeCountMisc
                0x00000000000623c0                AcpiGbl_DbArgs
                0x00000000000623ec                AcpiFixedEventCount
                0x0000000000062400                AcpiGbl_AcpiHardwarePresent
                0x0000000000062404                AcpiGbl_DbScopeNode
                0x0000000000062420                AcpiGbl_MutexInfo
                0x0000000000062480                AcpiGbl_RootNode
                0x0000000000062484                AcpiGbl_AddressRangeList
                0x00000000000624a0                AcpiGbl_FADT
                0x00000000000625b4                AcpiGbl_IntegerNybbleWidth
                0x00000000000625b8                AcpiGbl_XPm1aEnable
                0x00000000000625c4                AcpiGbl_OperandCache
                0x00000000000625c8                AcpiGbl_ObjTypeCountMisc
                0x00000000000625cc                AcpiGbl_DbBuffer
                0x00000000000625d0                AcpiGbl_ModuleCodeList
                0x00000000000625d4                AcpiGbl_SciHandlerList
                0x00000000000625d8                AcpiGbl_OriginalDbgLayer
                0x00000000000625e0                AcpiGbl_DbScopeBuf
                0x00000000000627e0                AcpiGbl_PsNodeExtCache
                0x00000000000627e4                AcpiGbl_GlobalLockPendingLock
                0x00000000000627e8                AcpiGbl_DebuggerConfiguration
                0x00000000000627ec                AcpiGbl_OriginalDbgLevel
                0x00000000000627f0                AcpiGbl_GlobalLockPending
                0x00000000000627f4                AcpiGbl_PsNodeCache
                0x00000000000627f8                AcpiGbl_SleepTypeA
                0x00000000000627f9                AcpiGbl_DbOutputToFile
                0x00000000000627fa                AcpiGbl_DbOpt_NoRegionSupport
                0x00000000000627fc                AcpiGbl_GpeFadtBlocks
                0x0000000000062804                AcpiMethodCount
                0x0000000000062808                AcpiGbl_ExceptionHandler
                0x000000000006280c                AcpiGbl_NamespaceRwLock
                0x0000000000062818                AcpiGbl_GlobalEventHandler
                0x000000000006281c                AcpiGbl_CurrentWalkList
                0x0000000000062820                AcpiGbl_OsiMutex
                0x0000000000062840                AcpiGbl_NodeTypeCount
                0x0000000000062878                AcpiGbl_DbTerminateLoop
                0x0000000000062879                AcpiGbl_GlobalLockPresent
                0x000000000006287c                AcpiGbl_NumObjects
                0x0000000000062880                AcpiGbl_DbParsedBuf
                0x0000000000062a80                AcpiGbl_DbDebugFilename
                0x0000000000062c80                AcpiGbl_NextOwnerIdOffset
                0x0000000000062c81                AcpiGbl_LastOwnerIdIndex
                0x0000000000062c84                AcpiGbl_XPm1bStatus
                0x0000000000062c90                kernel_end = .

/DISCARD/
 *(.comment)
 *(.eh_frame_hdr)
 *(.eh_frame)
LOAD ./Source/core/NSOKernel.o
LOAD ./Source/core/NSOBiosMaps.o
LOAD ./Source/core/NSOThread.o
LOAD ./Source/core/NSOAllocator.o
LOAD ./Source/core/NSOProcess.o
LOAD ./Source/core/NSOInterrupts.o
LOAD ./Source/core/NSOIOAPIC.o
LOAD ./Source/core/NSOPAllocator.o
LOAD ./Source/core/NSOPaging.o
LOAD ./Source/core/NSOSched.o
LOAD ./Source/core/NSOCacheControl.o
LOAD ./Source/core/NSOInterruptController.o
LOAD ./Source/core/NSOPCI.o
LOAD ./Source/core/NSOMP.o
LOAD ./Source/core/NSOCExceptions.o
LOAD ./Source/core/NSOIDE.o
LOAD ./Source/devices/NSOAPIC.o
LOAD ./Source/devices/NSOHPET.o
LOAD ./Source/devices/NSO8259A.o
LOAD ./Source/devices/NSOPIT.o
LOAD ./Source/utils/NSOLocks2.o
LOAD ./Source/utils/NSOStringUtils.o
LOAD ./Source/utils/NSOBochs.o
LOAD ./Source/utils/NSOCoreUtils.o
LOAD ./Source/acpica/NSOACPIOSL.o
LOAD ./Source/acpica/debugger/dbcmds.o
LOAD ./Source/acpica/debugger/dbtest.o
LOAD ./Source/acpica/debugger/dbutils.o
LOAD ./Source/acpica/debugger/dbexec.o
LOAD ./Source/acpica/debugger/dbmethod.o
LOAD ./Source/acpica/debugger/dbdisply.o
LOAD ./Source/acpica/debugger/dbstats.o
LOAD ./Source/acpica/debugger/dbobject.o
LOAD ./Source/acpica/debugger/dbfileio.o
LOAD ./Source/acpica/debugger/dbhistry.o
LOAD ./Source/acpica/debugger/dbinput.o
LOAD ./Source/acpica/debugger/dbxface.o
LOAD ./Source/acpica/debugger/dbconvert.o
LOAD ./Source/acpica/debugger/dbnames.o
LOAD ./Source/acpica/dispatcher/dswexec.o
LOAD ./Source/acpica/dispatcher/dsmethod.o
LOAD ./Source/acpica/dispatcher/dsdebug.o
LOAD ./Source/acpica/dispatcher/dspkginit.o
LOAD ./Source/acpica/dispatcher/dswload2.o
LOAD ./Source/acpica/dispatcher/dswload.o
LOAD ./Source/acpica/dispatcher/dswstate.o
LOAD ./Source/acpica/dispatcher/dsopcode.o
LOAD ./Source/acpica/dispatcher/dsobject.o
LOAD ./Source/acpica/dispatcher/dsutils.o
LOAD ./Source/acpica/dispatcher/dscontrol.o
LOAD ./Source/acpica/dispatcher/dswscope.o
LOAD ./Source/acpica/dispatcher/dsmthdat.o
LOAD ./Source/acpica/dispatcher/dsargs.o
LOAD ./Source/acpica/dispatcher/dsfield.o
LOAD ./Source/acpica/dispatcher/dsinit.o
LOAD ./Source/acpica/events/evxfgpe.o
LOAD ./Source/acpica/events/evxfevnt.o
LOAD ./Source/acpica/events/evxfregn.o
LOAD ./Source/acpica/events/evgpeutil.o
LOAD ./Source/acpica/events/evsci.o
LOAD ./Source/acpica/events/evhandler.o
LOAD ./Source/acpica/events/evrgnini.o
LOAD ./Source/acpica/events/evxface.o
LOAD ./Source/acpica/events/evmisc.o
LOAD ./Source/acpica/events/evgpe.o
LOAD ./Source/acpica/events/evevent.o
LOAD ./Source/acpica/events/evregion.o
LOAD ./Source/acpica/events/evgpeblk.o
LOAD ./Source/acpica/events/evglock.o
LOAD ./Source/acpica/events/evgpeinit.o
LOAD ./Source/acpica/executer/exmisc.o
LOAD ./Source/acpica/executer/exresnte.o
LOAD ./Source/acpica/executer/exnames.o
LOAD ./Source/acpica/executer/exoparg1.o
LOAD ./Source/acpica/executer/exregion.o
LOAD ./Source/acpica/executer/extrace.o
LOAD ./Source/acpica/executer/exoparg6.o
LOAD ./Source/acpica/executer/exoparg3.o
LOAD ./Source/acpica/executer/exserial.o
LOAD ./Source/acpica/executer/exconcat.o
LOAD ./Source/acpica/executer/exfldio.o
LOAD ./Source/acpica/executer/exmutex.o
LOAD ./Source/acpica/executer/exoparg2.o
LOAD ./Source/acpica/executer/exdump.o
LOAD ./Source/acpica/executer/exstore.o
LOAD ./Source/acpica/executer/exconvrt.o
LOAD ./Source/acpica/executer/exstorob.o
LOAD ./Source/acpica/executer/excreate.o
LOAD ./Source/acpica/executer/exfield.o
LOAD ./Source/acpica/executer/exprep.o
LOAD ./Source/acpica/executer/exdebug.o
LOAD ./Source/acpica/executer/exstoren.o
LOAD ./Source/acpica/executer/exresolv.o
LOAD ./Source/acpica/executer/exconfig.o
LOAD ./Source/acpica/executer/exsystem.o
LOAD ./Source/acpica/executer/exresop.o
LOAD ./Source/acpica/executer/exutils.o
LOAD ./Source/acpica/hardware/hwtimer.o
LOAD ./Source/acpica/hardware/hwesleep.o
LOAD ./Source/acpica/hardware/hwpci.o
LOAD ./Source/acpica/hardware/hwgpe.o
LOAD ./Source/acpica/hardware/hwacpi.o
LOAD ./Source/acpica/hardware/hwregs.o
LOAD ./Source/acpica/hardware/hwsleep.o
LOAD ./Source/acpica/hardware/hwvalid.o
LOAD ./Source/acpica/hardware/hwxfsleep.o
LOAD ./Source/acpica/hardware/hwxface.o
LOAD ./Source/acpica/namespace/nsxfobj.o
LOAD ./Source/acpica/namespace/nsprepkg.o
LOAD ./Source/acpica/namespace/nsaccess.o
LOAD ./Source/acpica/namespace/nsnames.o
LOAD ./Source/acpica/namespace/nsdump.o
LOAD ./Source/acpica/namespace/nsdumpdv.o
LOAD ./Source/acpica/namespace/nsconvert.o
LOAD ./Source/acpica/namespace/nsutils.o
LOAD ./Source/acpica/namespace/nseval.o
LOAD ./Source/acpica/namespace/nspredef.o
LOAD ./Source/acpica/namespace/nsxfname.o
LOAD ./Source/acpica/namespace/nsrepair.o
LOAD ./Source/acpica/namespace/nswalk.o
LOAD ./Source/acpica/namespace/nsxfeval.o
LOAD ./Source/acpica/namespace/nsarguments.o
LOAD ./Source/acpica/namespace/nsinit.o
LOAD ./Source/acpica/namespace/nsalloc.o
LOAD ./Source/acpica/namespace/nsobject.o
LOAD ./Source/acpica/namespace/nssearch.o
LOAD ./Source/acpica/namespace/nsload.o
LOAD ./Source/acpica/namespace/nsparse.o
LOAD ./Source/acpica/namespace/nsrepair2.o
LOAD ./Source/acpica/parser/psargs.o
LOAD ./Source/acpica/parser/psscope.o
LOAD ./Source/acpica/parser/psutils.o
LOAD ./Source/acpica/parser/psopinfo.o
LOAD ./Source/acpica/parser/pswalk.o
LOAD ./Source/acpica/parser/psloop.o
LOAD ./Source/acpica/parser/pstree.o
LOAD ./Source/acpica/parser/psopcode.o
LOAD ./Source/acpica/parser/psobject.o
LOAD ./Source/acpica/parser/psparse.o
LOAD ./Source/acpica/parser/psxface.o
LOAD ./Source/acpica/resources/rsutils.o
LOAD ./Source/acpica/resources/rsio.o
LOAD ./Source/acpica/resources/rsirq.o
LOAD ./Source/acpica/resources/rsinfo.o
LOAD ./Source/acpica/resources/rsmisc.o
LOAD ./Source/acpica/resources/rsserial.o
LOAD ./Source/acpica/resources/rsmemory.o
LOAD ./Source/acpica/resources/rslist.o
LOAD ./Source/acpica/resources/rsaddr.o
LOAD ./Source/acpica/resources/rscalc.o
LOAD ./Source/acpica/resources/rsxface.o
LOAD ./Source/acpica/resources/rscreate.o
LOAD ./Source/acpica/resources/rsdumpinfo.o
LOAD ./Source/acpica/resources/rsdump.o
LOAD ./Source/acpica/tables/tbinstal.o
LOAD ./Source/acpica/tables/tbxface.o
LOAD ./Source/acpica/tables/tbdata.o
LOAD ./Source/acpica/tables/tbfadt.o
LOAD ./Source/acpica/tables/tbxfroot.o
LOAD ./Source/acpica/tables/tbprint.o
LOAD ./Source/acpica/tables/tbutils.o
LOAD ./Source/acpica/tables/tbxfload.o
LOAD ./Source/acpica/tables/tbfind.o
LOAD ./Source/acpica/utilities/utxferror.o
LOAD ./Source/acpica/utilities/utobject.o
LOAD ./Source/acpica/utilities/uteval.o
LOAD ./Source/acpica/utilities/utaddress.o
LOAD ./Source/acpica/utilities/utinit.o
LOAD ./Source/acpica/utilities/utclib.o
LOAD ./Source/acpica/utilities/utosi.o
LOAD ./Source/acpica/utilities/utxface.o
LOAD ./Source/acpica/utilities/utcopy.o
LOAD ./Source/acpica/utilities/utids.o
LOAD ./Source/acpica/utilities/utbuffer.o
LOAD ./Source/acpica/utilities/utglobal.o
LOAD ./Source/acpica/utilities/utxfinit.o
LOAD ./Source/acpica/utilities/utstate.o
LOAD ./Source/acpica/utilities/uterror.o
LOAD ./Source/acpica/utilities/utstring.o
LOAD ./Source/acpica/utilities/utdecode.o
LOAD ./Source/acpica/utilities/utdelete.o
LOAD ./Source/acpica/utilities/utownerid.o
LOAD ./Source/acpica/utilities/utascii.o
LOAD ./Source/acpica/utilities/utexcep.o
LOAD ./Source/acpica/utilities/utpredef.o
LOAD ./Source/acpica/utilities/utdebug.o
LOAD ./Source/acpica/utilities/uthex.o
LOAD ./Source/acpica/utilities/uttrack.o
LOAD ./Source/acpica/utilities/utresrc.o
LOAD ./Source/acpica/utilities/utlock.o
LOAD ./Source/acpica/utilities/utstrsuppt.o
LOAD ./Source/acpica/utilities/utalloc.o
LOAD ./Source/acpica/utilities/utxfmutex.o
LOAD ./Source/acpica/utilities/utprint.o
LOAD ./Source/acpica/utilities/utcache.o
LOAD ./Source/acpica/utilities/utuuid.o
LOAD ./Source/acpica/utilities/utmath.o
LOAD ./Source/acpica/utilities/utmutex.o
LOAD ./Source/acpica/utilities/utstrtoul64.o
LOAD ./Source/acpica/utilities/utresdecode.o
LOAD ./Source/acpica/utilities/utnonansi.o
LOAD ./Source/acpica/utilities/utmisc.o
LOAD ./Source/core/NSOCorePaging.o
LOAD ./Source/core/NSOExceptions.o
LOAD ./Source/utils/NSOLocks.o
OUTPUT(DiskContent/Stick.o elf32-i386)
